
main.out:     file format elf32-littleriscv


Disassembly of section .text:

80001000 <_start-0x204>:
80001000:	2040006f          	j	80001204 <_start>
80001004:	00000013          	nop
80001008:	00000013          	nop
8000100c:	00000013          	nop
80001010:	00000013          	nop
80001014:	00000013          	nop
80001018:	00000013          	nop
8000101c:	00000013          	nop
80001020:	00000013          	nop
80001024:	00000013          	nop
80001028:	00000013          	nop
8000102c:	00000013          	nop
80001030:	00000013          	nop
80001034:	00000013          	nop
80001038:	00000013          	nop
8000103c:	00000013          	nop
80001040:	00000013          	nop
80001044:	00000013          	nop
80001048:	00000013          	nop
8000104c:	00000013          	nop
80001050:	00000013          	nop
80001054:	00000013          	nop
80001058:	00000013          	nop
8000105c:	00000013          	nop
80001060:	00000013          	nop
80001064:	00000013          	nop
80001068:	00000013          	nop
8000106c:	00000013          	nop
80001070:	00000013          	nop
80001074:	00000013          	nop
80001078:	00000013          	nop
8000107c:	00000013          	nop
80001080:	00000013          	nop
80001084:	00000013          	nop
80001088:	00000013          	nop
8000108c:	00000013          	nop
80001090:	00000013          	nop
80001094:	00000013          	nop
80001098:	00000013          	nop
8000109c:	00000013          	nop
800010a0:	00000013          	nop
800010a4:	00000013          	nop
800010a8:	00000013          	nop
800010ac:	00000013          	nop
800010b0:	00000013          	nop
800010b4:	00000013          	nop
800010b8:	00000013          	nop
800010bc:	00000013          	nop
800010c0:	00000013          	nop
800010c4:	00000013          	nop
800010c8:	00000013          	nop
800010cc:	00000013          	nop
800010d0:	00000013          	nop
800010d4:	00000013          	nop
800010d8:	00000013          	nop
800010dc:	00000013          	nop
800010e0:	00000013          	nop
800010e4:	00000013          	nop
800010e8:	00000013          	nop
800010ec:	00000013          	nop
800010f0:	00000013          	nop
800010f4:	00000013          	nop
800010f8:	00000013          	nop
800010fc:	00000013          	nop
80001100:	2180006f          	j	80001318 <_external_interrupt>
80001104:	00000013          	nop
80001108:	00000013          	nop
8000110c:	00000013          	nop
80001110:	00000013          	nop
80001114:	00000013          	nop
80001118:	00000013          	nop
8000111c:	00000013          	nop
80001120:	00000013          	nop
80001124:	00000013          	nop
80001128:	00000013          	nop
8000112c:	00000013          	nop
80001130:	00000013          	nop
80001134:	00000013          	nop
80001138:	00000013          	nop
8000113c:	00000013          	nop
80001140:	00000013          	nop
80001144:	00000013          	nop
80001148:	00000013          	nop
8000114c:	00000013          	nop
80001150:	00000013          	nop
80001154:	00000013          	nop
80001158:	00000013          	nop
8000115c:	00000013          	nop
80001160:	00000013          	nop
80001164:	00000013          	nop
80001168:	00000013          	nop
8000116c:	00000013          	nop
80001170:	00000013          	nop
80001174:	00000013          	nop
80001178:	00000013          	nop
8000117c:	00000013          	nop
80001180:	00000013          	nop
80001184:	00000013          	nop
80001188:	00000013          	nop
8000118c:	00000013          	nop
80001190:	00000013          	nop
80001194:	00000013          	nop
80001198:	00000013          	nop
8000119c:	00000013          	nop
800011a0:	00000013          	nop
800011a4:	00000013          	nop
800011a8:	00000013          	nop
800011ac:	00000013          	nop
800011b0:	00000013          	nop
800011b4:	00000013          	nop
800011b8:	00000013          	nop
800011bc:	00000013          	nop
800011c0:	00000013          	nop
800011c4:	00000013          	nop
800011c8:	00000013          	nop
800011cc:	00000013          	nop
800011d0:	00000013          	nop
800011d4:	00000013          	nop
800011d8:	00000013          	nop
800011dc:	00000013          	nop
800011e0:	00000013          	nop
800011e4:	00000013          	nop
800011e8:	00000013          	nop
800011ec:	00000013          	nop
800011f0:	00000013          	nop
800011f4:	00000013          	nop
800011f8:	00000013          	nop
800011fc:	00000013          	nop
80001200:	1340006f          	j	80001334 <_misaligned_instruction>

80001204 <_start>:
80001204:	00000117          	auipc	sp,0x0
80001208:	dfc10113          	addi	sp,sp,-516 # 80001000 <__stack_top>
8000120c:	00000097          	auipc	ra,0x0
80001210:	00c08093          	addi	ra,ra,12 # 80001218 <exec_done>
80001214:	1a00006f          	j	800013b4 <main>

80001218 <exec_done>:
80001218:	0000006f          	j	80001218 <exec_done>
	...

80001284 <getTickCount>:
80001284:	fe010113          	addi	sp,sp,-32
80001288:	00812e23          	sw	s0,28(sp)
8000128c:	02010413          	addi	s0,sp,32
80001290:	fea42623          	sw	a0,-20(s0)
80001294:	feb42423          	sw	a1,-24(s0)
80001298:	c00007b7          	lui	a5,0xc0000
8000129c:	00478793          	addi	a5,a5,4 # c0000004 <__modsi3+0x3fffe610>
800012a0:	0007a703          	lw	a4,0(a5)
800012a4:	fec42783          	lw	a5,-20(s0)
800012a8:	00e7a023          	sw	a4,0(a5)
800012ac:	c00007b7          	lui	a5,0xc0000
800012b0:	0007a703          	lw	a4,0(a5) # c0000000 <__modsi3+0x3fffe60c>
800012b4:	fe842783          	lw	a5,-24(s0)
800012b8:	00e7a023          	sw	a4,0(a5)
800012bc:	00000013          	nop
800012c0:	01c12403          	lw	s0,28(sp)
800012c4:	02010113          	addi	sp,sp,32
800012c8:	00008067          	ret

800012cc <_putchar>:
800012cc:	fe010113          	addi	sp,sp,-32
800012d0:	00812e23          	sw	s0,28(sp)
800012d4:	02010413          	addi	s0,sp,32
800012d8:	00050793          	mv	a5,a0
800012dc:	fef407a3          	sb	a5,-17(s0)
800012e0:	00000013          	nop
800012e4:	c00017b7          	lui	a5,0xc0001
800012e8:	0007c783          	lbu	a5,0(a5) # c0001000 <__modsi3+0x3ffff60c>
800012ec:	0ff7f793          	andi	a5,a5,255
800012f0:	0017f793          	andi	a5,a5,1
800012f4:	fe0798e3          	bnez	a5,800012e4 <_putchar+0x18>
800012f8:	c00017b7          	lui	a5,0xc0001
800012fc:	00178793          	addi	a5,a5,1 # c0001001 <__modsi3+0x3ffff60d>
80001300:	fef44703          	lbu	a4,-17(s0)
80001304:	00e78023          	sb	a4,0(a5)
80001308:	00000013          	nop
8000130c:	01c12403          	lw	s0,28(sp)
80001310:	02010113          	addi	sp,sp,32
80001314:	00008067          	ret

80001318 <_external_interrupt>:
80001318:	ff010113          	addi	sp,sp,-16
8000131c:	00812623          	sw	s0,12(sp)
80001320:	01010413          	addi	s0,sp,16
80001324:	00000013          	nop
80001328:	00c12403          	lw	s0,12(sp)
8000132c:	01010113          	addi	sp,sp,16
80001330:	00008067          	ret

80001334 <_misaligned_instruction>:
80001334:	ff010113          	addi	sp,sp,-16
80001338:	00812623          	sw	s0,12(sp)
8000133c:	01010413          	addi	s0,sp,16
80001340:	00000013          	nop
80001344:	00c12403          	lw	s0,12(sp)
80001348:	01010113          	addi	sp,sp,16
8000134c:	00008067          	ret

80001350 <memset>:
80001350:	fd010113          	addi	sp,sp,-48
80001354:	02812623          	sw	s0,44(sp)
80001358:	03010413          	addi	s0,sp,48
8000135c:	fca42e23          	sw	a0,-36(s0)
80001360:	fcb42c23          	sw	a1,-40(s0)
80001364:	fcc42a23          	sw	a2,-44(s0)
80001368:	fe042623          	sw	zero,-20(s0)
8000136c:	0280006f          	j	80001394 <memset+0x44>
80001370:	fec42783          	lw	a5,-20(s0)
80001374:	fdc42703          	lw	a4,-36(s0)
80001378:	00f707b3          	add	a5,a4,a5
8000137c:	fd842703          	lw	a4,-40(s0)
80001380:	0ff77713          	andi	a4,a4,255
80001384:	00e78023          	sb	a4,0(a5)
80001388:	fec42783          	lw	a5,-20(s0)
8000138c:	00178793          	addi	a5,a5,1
80001390:	fef42623          	sw	a5,-20(s0)
80001394:	fec42783          	lw	a5,-20(s0)
80001398:	fd442703          	lw	a4,-44(s0)
8000139c:	fce7eae3          	bltu	a5,a4,80001370 <memset+0x20>
800013a0:	00000013          	nop
800013a4:	00000013          	nop
800013a8:	02c12403          	lw	s0,44(sp)
800013ac:	03010113          	addi	sp,sp,48
800013b0:	00008067          	ret

800013b4 <main>:
800013b4:	ed010113          	addi	sp,sp,-304
800013b8:	12112623          	sw	ra,300(sp)
800013bc:	12812423          	sw	s0,296(sp)
800013c0:	13010413          	addi	s0,sp,304
800013c4:	fdc40713          	addi	a4,s0,-36
800013c8:	fe040793          	addi	a5,s0,-32
800013cc:	00070593          	mv	a1,a4
800013d0:	00078513          	mv	a0,a5
800013d4:	eb1ff0ef          	jal	ra,80001284 <getTickCount>
800013d8:	edc40793          	addi	a5,s0,-292
800013dc:	10000613          	li	a2,256
800013e0:	00000593          	li	a1,0
800013e4:	00078513          	mv	a0,a5
800013e8:	f69ff0ef          	jal	ra,80001350 <memset>
800013ec:	deadc7b7          	lui	a5,0xdeadc
800013f0:	abe78793          	addi	a5,a5,-1346 # deadbabe <__modsi3+0x5eada0ca>
800013f4:	fef42423          	sw	a5,-24(s0)
800013f8:	deadc7b7          	lui	a5,0xdeadc
800013fc:	eef78793          	addi	a5,a5,-273 # deadbeef <__modsi3+0x5eada4fb>
80001400:	fef42223          	sw	a5,-28(s0)
80001404:	edc40713          	addi	a4,s0,-292
80001408:	07b00693          	li	a3,123
8000140c:	800007b7          	lui	a5,0x80000
80001410:	00078613          	mv	a2,a5
80001414:	0ff00593          	li	a1,255
80001418:	00070513          	mv	a0,a4
8000141c:	4dc000ef          	jal	ra,800018f8 <snprintf>
80001420:	fe042623          	sw	zero,-20(s0)
80001424:	0240006f          	j	80001448 <main+0x94>
80001428:	fec42783          	lw	a5,-20(s0)
8000142c:	00178713          	addi	a4,a5,1 # 80000001 <__modsi3+0xffffe60d>
80001430:	fee42623          	sw	a4,-20(s0)
80001434:	ff040713          	addi	a4,s0,-16
80001438:	00f707b3          	add	a5,a4,a5
8000143c:	eec7c783          	lbu	a5,-276(a5)
80001440:	00078513          	mv	a0,a5
80001444:	e89ff0ef          	jal	ra,800012cc <_putchar>
80001448:	fec42783          	lw	a5,-20(s0)
8000144c:	ff040713          	addi	a4,s0,-16
80001450:	00f707b3          	add	a5,a4,a5
80001454:	eec7c783          	lbu	a5,-276(a5)
80001458:	fc0798e3          	bnez	a5,80001428 <main+0x74>
8000145c:	00000013          	nop
80001460:	00000013          	nop
80001464:	12c12083          	lw	ra,300(sp)
80001468:	12812403          	lw	s0,296(sp)
8000146c:	13010113          	addi	sp,sp,304
80001470:	00008067          	ret

80001474 <vsnprintf>:
80001474:	fb010113          	addi	sp,sp,-80
80001478:	04112623          	sw	ra,76(sp)
8000147c:	04812423          	sw	s0,72(sp)
80001480:	05010413          	addi	s0,sp,80
80001484:	faa42e23          	sw	a0,-68(s0)
80001488:	fab42c23          	sw	a1,-72(s0)
8000148c:	fac42a23          	sw	a2,-76(s0)
80001490:	fad42823          	sw	a3,-80(s0)
80001494:	fe0407a3          	sb	zero,-17(s0)
80001498:	fe040723          	sb	zero,-18(s0)
8000149c:	fe042423          	sw	zero,-24(s0)
800014a0:	3f80006f          	j	80001898 <vsnprintf+0x424>
800014a4:	fef44783          	lbu	a5,-17(s0)
800014a8:	38078663          	beqz	a5,80001834 <vsnprintf+0x3c0>
800014ac:	fb442783          	lw	a5,-76(s0)
800014b0:	0007c783          	lbu	a5,0(a5)
800014b4:	f9d78793          	addi	a5,a5,-99
800014b8:	01500713          	li	a4,21
800014bc:	3cf76663          	bltu	a4,a5,80001888 <vsnprintf+0x414>
800014c0:	00279713          	slli	a4,a5,0x2
800014c4:	800007b7          	lui	a5,0x80000
800014c8:	01878793          	addi	a5,a5,24 # 80000018 <__modsi3+0xffffe624>
800014cc:	00f707b3          	add	a5,a4,a5
800014d0:	0007a783          	lw	a5,0(a5)
800014d4:	00078067          	jr	a5
800014d8:	00100793          	li	a5,1
800014dc:	fef40723          	sb	a5,-18(s0)
800014e0:	3ac0006f          	j	8000188c <vsnprintf+0x418>
800014e4:	00100793          	li	a5,1
800014e8:	fef40723          	sb	a5,-18(s0)
800014ec:	fe842783          	lw	a5,-24(s0)
800014f0:	00178793          	addi	a5,a5,1
800014f4:	fef42423          	sw	a5,-24(s0)
800014f8:	fe842703          	lw	a4,-24(s0)
800014fc:	fb842783          	lw	a5,-72(s0)
80001500:	00f77e63          	bgeu	a4,a5,8000151c <vsnprintf+0xa8>
80001504:	fe842783          	lw	a5,-24(s0)
80001508:	fff78793          	addi	a5,a5,-1
8000150c:	fbc42703          	lw	a4,-68(s0)
80001510:	00f707b3          	add	a5,a4,a5
80001514:	03000713          	li	a4,48
80001518:	00e78023          	sb	a4,0(a5)
8000151c:	fe842783          	lw	a5,-24(s0)
80001520:	00178793          	addi	a5,a5,1
80001524:	fef42423          	sw	a5,-24(s0)
80001528:	fe842703          	lw	a4,-24(s0)
8000152c:	fb842783          	lw	a5,-72(s0)
80001530:	00f77e63          	bgeu	a4,a5,8000154c <vsnprintf+0xd8>
80001534:	fe842783          	lw	a5,-24(s0)
80001538:	fff78793          	addi	a5,a5,-1
8000153c:	fbc42703          	lw	a4,-68(s0)
80001540:	00f707b3          	add	a5,a4,a5
80001544:	07800713          	li	a4,120
80001548:	00e78023          	sb	a4,0(a5)
8000154c:	fee44783          	lbu	a5,-18(s0)
80001550:	00078c63          	beqz	a5,80001568 <vsnprintf+0xf4>
80001554:	fb042783          	lw	a5,-80(s0)
80001558:	00478713          	addi	a4,a5,4
8000155c:	fae42823          	sw	a4,-80(s0)
80001560:	0007a783          	lw	a5,0(a5)
80001564:	0140006f          	j	80001578 <vsnprintf+0x104>
80001568:	fb042783          	lw	a5,-80(s0)
8000156c:	00478713          	addi	a4,a5,4
80001570:	fae42823          	sw	a4,-80(s0)
80001574:	0007a783          	lw	a5,0(a5)
80001578:	fcf42623          	sw	a5,-52(s0)
8000157c:	00700793          	li	a5,7
80001580:	fef42223          	sw	a5,-28(s0)
80001584:	0840006f          	j	80001608 <vsnprintf+0x194>
80001588:	fe442783          	lw	a5,-28(s0)
8000158c:	00279793          	slli	a5,a5,0x2
80001590:	fcc42703          	lw	a4,-52(s0)
80001594:	40f757b3          	sra	a5,a4,a5
80001598:	00f7f793          	andi	a5,a5,15
8000159c:	fcf42423          	sw	a5,-56(s0)
800015a0:	fe842783          	lw	a5,-24(s0)
800015a4:	00178793          	addi	a5,a5,1
800015a8:	fef42423          	sw	a5,-24(s0)
800015ac:	fe842703          	lw	a4,-24(s0)
800015b0:	fb842783          	lw	a5,-72(s0)
800015b4:	04f77463          	bgeu	a4,a5,800015fc <vsnprintf+0x188>
800015b8:	fc842703          	lw	a4,-56(s0)
800015bc:	00900793          	li	a5,9
800015c0:	00e7cc63          	blt	a5,a4,800015d8 <vsnprintf+0x164>
800015c4:	fc842783          	lw	a5,-56(s0)
800015c8:	0ff7f793          	andi	a5,a5,255
800015cc:	03078793          	addi	a5,a5,48
800015d0:	0ff7f793          	andi	a5,a5,255
800015d4:	0140006f          	j	800015e8 <vsnprintf+0x174>
800015d8:	fc842783          	lw	a5,-56(s0)
800015dc:	0ff7f793          	andi	a5,a5,255
800015e0:	05778793          	addi	a5,a5,87
800015e4:	0ff7f793          	andi	a5,a5,255
800015e8:	fe842703          	lw	a4,-24(s0)
800015ec:	fff70713          	addi	a4,a4,-1
800015f0:	fbc42683          	lw	a3,-68(s0)
800015f4:	00e68733          	add	a4,a3,a4
800015f8:	00f70023          	sb	a5,0(a4)
800015fc:	fe442783          	lw	a5,-28(s0)
80001600:	fff78793          	addi	a5,a5,-1
80001604:	fef42223          	sw	a5,-28(s0)
80001608:	fe442783          	lw	a5,-28(s0)
8000160c:	f607dee3          	bgez	a5,80001588 <vsnprintf+0x114>
80001610:	fe040723          	sb	zero,-18(s0)
80001614:	fe0407a3          	sb	zero,-17(s0)
80001618:	2740006f          	j	8000188c <vsnprintf+0x418>
8000161c:	fee44783          	lbu	a5,-18(s0)
80001620:	00078c63          	beqz	a5,80001638 <vsnprintf+0x1c4>
80001624:	fb042783          	lw	a5,-80(s0)
80001628:	00478713          	addi	a4,a5,4
8000162c:	fae42823          	sw	a4,-80(s0)
80001630:	0007a783          	lw	a5,0(a5)
80001634:	0140006f          	j	80001648 <vsnprintf+0x1d4>
80001638:	fb042783          	lw	a5,-80(s0)
8000163c:	00478713          	addi	a4,a5,4
80001640:	fae42823          	sw	a4,-80(s0)
80001644:	0007a783          	lw	a5,0(a5)
80001648:	fef42023          	sw	a5,-32(s0)
8000164c:	fe042783          	lw	a5,-32(s0)
80001650:	0407d063          	bgez	a5,80001690 <vsnprintf+0x21c>
80001654:	fe042783          	lw	a5,-32(s0)
80001658:	40f007b3          	neg	a5,a5
8000165c:	fef42023          	sw	a5,-32(s0)
80001660:	fe842783          	lw	a5,-24(s0)
80001664:	00178793          	addi	a5,a5,1
80001668:	fef42423          	sw	a5,-24(s0)
8000166c:	fe842703          	lw	a4,-24(s0)
80001670:	fb842783          	lw	a5,-72(s0)
80001674:	00f77e63          	bgeu	a4,a5,80001690 <vsnprintf+0x21c>
80001678:	fe842783          	lw	a5,-24(s0)
8000167c:	fff78793          	addi	a5,a5,-1
80001680:	fbc42703          	lw	a4,-68(s0)
80001684:	00f707b3          	add	a5,a4,a5
80001688:	02d00713          	li	a4,45
8000168c:	00e78023          	sb	a4,0(a5)
80001690:	00100793          	li	a5,1
80001694:	fcf42e23          	sw	a5,-36(s0)
80001698:	fe042783          	lw	a5,-32(s0)
8000169c:	fcf42c23          	sw	a5,-40(s0)
800016a0:	0100006f          	j	800016b0 <vsnprintf+0x23c>
800016a4:	fdc42783          	lw	a5,-36(s0)
800016a8:	00178793          	addi	a5,a5,1
800016ac:	fcf42e23          	sw	a5,-36(s0)
800016b0:	fd842783          	lw	a5,-40(s0)
800016b4:	00a00593          	li	a1,10
800016b8:	00078513          	mv	a0,a5
800016bc:	2b4000ef          	jal	ra,80001970 <__divsi3>
800016c0:	00050793          	mv	a5,a0
800016c4:	fcf42c23          	sw	a5,-40(s0)
800016c8:	fd842783          	lw	a5,-40(s0)
800016cc:	fc079ce3          	bnez	a5,800016a4 <vsnprintf+0x230>
800016d0:	fdc42783          	lw	a5,-36(s0)
800016d4:	fff78793          	addi	a5,a5,-1
800016d8:	fcf42a23          	sw	a5,-44(s0)
800016dc:	0780006f          	j	80001754 <vsnprintf+0x2e0>
800016e0:	fd442703          	lw	a4,-44(s0)
800016e4:	fe842783          	lw	a5,-24(s0)
800016e8:	00f707b3          	add	a5,a4,a5
800016ec:	00178793          	addi	a5,a5,1
800016f0:	fb842703          	lw	a4,-72(s0)
800016f4:	02e7fe63          	bgeu	a5,a4,80001730 <vsnprintf+0x2bc>
800016f8:	fe042783          	lw	a5,-32(s0)
800016fc:	00a00593          	li	a1,10
80001700:	00078513          	mv	a0,a5
80001704:	2f0000ef          	jal	ra,800019f4 <__modsi3>
80001708:	00050793          	mv	a5,a0
8000170c:	0ff7f713          	andi	a4,a5,255
80001710:	fd442683          	lw	a3,-44(s0)
80001714:	fe842783          	lw	a5,-24(s0)
80001718:	00f687b3          	add	a5,a3,a5
8000171c:	fbc42683          	lw	a3,-68(s0)
80001720:	00f687b3          	add	a5,a3,a5
80001724:	03070713          	addi	a4,a4,48
80001728:	0ff77713          	andi	a4,a4,255
8000172c:	00e78023          	sb	a4,0(a5)
80001730:	fe042783          	lw	a5,-32(s0)
80001734:	00a00593          	li	a1,10
80001738:	00078513          	mv	a0,a5
8000173c:	234000ef          	jal	ra,80001970 <__divsi3>
80001740:	00050793          	mv	a5,a0
80001744:	fef42023          	sw	a5,-32(s0)
80001748:	fd442783          	lw	a5,-44(s0)
8000174c:	fff78793          	addi	a5,a5,-1
80001750:	fcf42a23          	sw	a5,-44(s0)
80001754:	fd442783          	lw	a5,-44(s0)
80001758:	f807d4e3          	bgez	a5,800016e0 <vsnprintf+0x26c>
8000175c:	fdc42783          	lw	a5,-36(s0)
80001760:	fe842703          	lw	a4,-24(s0)
80001764:	00f707b3          	add	a5,a4,a5
80001768:	fef42423          	sw	a5,-24(s0)
8000176c:	fe040723          	sb	zero,-18(s0)
80001770:	fe0407a3          	sb	zero,-17(s0)
80001774:	1180006f          	j	8000188c <vsnprintf+0x418>
80001778:	fb042783          	lw	a5,-80(s0)
8000177c:	00478713          	addi	a4,a5,4
80001780:	fae42823          	sw	a4,-80(s0)
80001784:	0007a783          	lw	a5,0(a5)
80001788:	fcf42823          	sw	a5,-48(s0)
8000178c:	0440006f          	j	800017d0 <vsnprintf+0x35c>
80001790:	fe842783          	lw	a5,-24(s0)
80001794:	00178793          	addi	a5,a5,1
80001798:	fef42423          	sw	a5,-24(s0)
8000179c:	fe842703          	lw	a4,-24(s0)
800017a0:	fb842783          	lw	a5,-72(s0)
800017a4:	02f77063          	bgeu	a4,a5,800017c4 <vsnprintf+0x350>
800017a8:	fe842783          	lw	a5,-24(s0)
800017ac:	fff78793          	addi	a5,a5,-1
800017b0:	fbc42703          	lw	a4,-68(s0)
800017b4:	00f707b3          	add	a5,a4,a5
800017b8:	fd042703          	lw	a4,-48(s0)
800017bc:	00074703          	lbu	a4,0(a4)
800017c0:	00e78023          	sb	a4,0(a5)
800017c4:	fd042783          	lw	a5,-48(s0)
800017c8:	00178793          	addi	a5,a5,1
800017cc:	fcf42823          	sw	a5,-48(s0)
800017d0:	fd042783          	lw	a5,-48(s0)
800017d4:	0007c783          	lbu	a5,0(a5)
800017d8:	fa079ce3          	bnez	a5,80001790 <vsnprintf+0x31c>
800017dc:	fe040723          	sb	zero,-18(s0)
800017e0:	fe0407a3          	sb	zero,-17(s0)
800017e4:	0a80006f          	j	8000188c <vsnprintf+0x418>
800017e8:	fe842783          	lw	a5,-24(s0)
800017ec:	00178793          	addi	a5,a5,1
800017f0:	fef42423          	sw	a5,-24(s0)
800017f4:	fe842703          	lw	a4,-24(s0)
800017f8:	fb842783          	lw	a5,-72(s0)
800017fc:	02f77663          	bgeu	a4,a5,80001828 <vsnprintf+0x3b4>
80001800:	fb042783          	lw	a5,-80(s0)
80001804:	00478713          	addi	a4,a5,4
80001808:	fae42823          	sw	a4,-80(s0)
8000180c:	0007a683          	lw	a3,0(a5)
80001810:	fe842783          	lw	a5,-24(s0)
80001814:	fff78793          	addi	a5,a5,-1
80001818:	fbc42703          	lw	a4,-68(s0)
8000181c:	00f707b3          	add	a5,a4,a5
80001820:	0ff6f713          	andi	a4,a3,255
80001824:	00e78023          	sb	a4,0(a5)
80001828:	fe040723          	sb	zero,-18(s0)
8000182c:	fe0407a3          	sb	zero,-17(s0)
80001830:	05c0006f          	j	8000188c <vsnprintf+0x418>
80001834:	fb442783          	lw	a5,-76(s0)
80001838:	0007c703          	lbu	a4,0(a5)
8000183c:	02500793          	li	a5,37
80001840:	00f71863          	bne	a4,a5,80001850 <vsnprintf+0x3dc>
80001844:	00100793          	li	a5,1
80001848:	fef407a3          	sb	a5,-17(s0)
8000184c:	0400006f          	j	8000188c <vsnprintf+0x418>
80001850:	fe842783          	lw	a5,-24(s0)
80001854:	00178793          	addi	a5,a5,1
80001858:	fef42423          	sw	a5,-24(s0)
8000185c:	fe842703          	lw	a4,-24(s0)
80001860:	fb842783          	lw	a5,-72(s0)
80001864:	02f77463          	bgeu	a4,a5,8000188c <vsnprintf+0x418>
80001868:	fe842783          	lw	a5,-24(s0)
8000186c:	fff78793          	addi	a5,a5,-1
80001870:	fbc42703          	lw	a4,-68(s0)
80001874:	00f707b3          	add	a5,a4,a5
80001878:	fb442703          	lw	a4,-76(s0)
8000187c:	00074703          	lbu	a4,0(a4)
80001880:	00e78023          	sb	a4,0(a5)
80001884:	0080006f          	j	8000188c <vsnprintf+0x418>
80001888:	00000013          	nop
8000188c:	fb442783          	lw	a5,-76(s0)
80001890:	00178793          	addi	a5,a5,1
80001894:	faf42a23          	sw	a5,-76(s0)
80001898:	fb442783          	lw	a5,-76(s0)
8000189c:	0007c783          	lbu	a5,0(a5)
800018a0:	c00792e3          	bnez	a5,800014a4 <vsnprintf+0x30>
800018a4:	fe842703          	lw	a4,-24(s0)
800018a8:	fb842783          	lw	a5,-72(s0)
800018ac:	00f77c63          	bgeu	a4,a5,800018c4 <vsnprintf+0x450>
800018b0:	fbc42703          	lw	a4,-68(s0)
800018b4:	fe842783          	lw	a5,-24(s0)
800018b8:	00f707b3          	add	a5,a4,a5
800018bc:	00078023          	sb	zero,0(a5)
800018c0:	0200006f          	j	800018e0 <vsnprintf+0x46c>
800018c4:	fb842783          	lw	a5,-72(s0)
800018c8:	00078c63          	beqz	a5,800018e0 <vsnprintf+0x46c>
800018cc:	fb842783          	lw	a5,-72(s0)
800018d0:	fff78793          	addi	a5,a5,-1
800018d4:	fbc42703          	lw	a4,-68(s0)
800018d8:	00f707b3          	add	a5,a4,a5
800018dc:	00078023          	sb	zero,0(a5)
800018e0:	fe842783          	lw	a5,-24(s0)
800018e4:	00078513          	mv	a0,a5
800018e8:	04c12083          	lw	ra,76(sp)
800018ec:	04812403          	lw	s0,72(sp)
800018f0:	05010113          	addi	sp,sp,80
800018f4:	00008067          	ret

800018f8 <snprintf>:
800018f8:	fb010113          	addi	sp,sp,-80
800018fc:	02112623          	sw	ra,44(sp)
80001900:	02812423          	sw	s0,40(sp)
80001904:	03010413          	addi	s0,sp,48
80001908:	fca42e23          	sw	a0,-36(s0)
8000190c:	fcb42c23          	sw	a1,-40(s0)
80001910:	fcc42a23          	sw	a2,-44(s0)
80001914:	00d42623          	sw	a3,12(s0)
80001918:	00e42823          	sw	a4,16(s0)
8000191c:	00f42a23          	sw	a5,20(s0)
80001920:	01042c23          	sw	a6,24(s0)
80001924:	01142e23          	sw	a7,28(s0)
80001928:	02040793          	addi	a5,s0,32
8000192c:	fcf42823          	sw	a5,-48(s0)
80001930:	fd042783          	lw	a5,-48(s0)
80001934:	fec78793          	addi	a5,a5,-20
80001938:	fef42423          	sw	a5,-24(s0)
8000193c:	fe842783          	lw	a5,-24(s0)
80001940:	00078693          	mv	a3,a5
80001944:	fd442603          	lw	a2,-44(s0)
80001948:	fd842583          	lw	a1,-40(s0)
8000194c:	fdc42503          	lw	a0,-36(s0)
80001950:	b25ff0ef          	jal	ra,80001474 <vsnprintf>
80001954:	fea42623          	sw	a0,-20(s0)
80001958:	fec42783          	lw	a5,-20(s0)
8000195c:	00078513          	mv	a0,a5
80001960:	02c12083          	lw	ra,44(sp)
80001964:	02812403          	lw	s0,40(sp)
80001968:	05010113          	addi	sp,sp,80
8000196c:	00008067          	ret

80001970 <__divsi3>:
80001970:	06054063          	bltz	a0,800019d0 <__umodsi3+0x10>
80001974:	0605c663          	bltz	a1,800019e0 <__umodsi3+0x20>

80001978 <__udivsi3>:
80001978:	00058613          	mv	a2,a1
8000197c:	00050593          	mv	a1,a0
80001980:	fff00513          	li	a0,-1
80001984:	02060c63          	beqz	a2,800019bc <__udivsi3+0x44>
80001988:	00100693          	li	a3,1
8000198c:	00b67a63          	bgeu	a2,a1,800019a0 <__udivsi3+0x28>
80001990:	00c05863          	blez	a2,800019a0 <__udivsi3+0x28>
80001994:	00161613          	slli	a2,a2,0x1
80001998:	00169693          	slli	a3,a3,0x1
8000199c:	feb66ae3          	bltu	a2,a1,80001990 <__udivsi3+0x18>
800019a0:	00000513          	li	a0,0
800019a4:	00c5e663          	bltu	a1,a2,800019b0 <__udivsi3+0x38>
800019a8:	40c585b3          	sub	a1,a1,a2
800019ac:	00d56533          	or	a0,a0,a3
800019b0:	0016d693          	srli	a3,a3,0x1
800019b4:	00165613          	srli	a2,a2,0x1
800019b8:	fe0696e3          	bnez	a3,800019a4 <__udivsi3+0x2c>
800019bc:	00008067          	ret

800019c0 <__umodsi3>:
800019c0:	00008293          	mv	t0,ra
800019c4:	fb5ff0ef          	jal	ra,80001978 <__udivsi3>
800019c8:	00058513          	mv	a0,a1
800019cc:	00028067          	jr	t0
800019d0:	40a00533          	neg	a0,a0
800019d4:	0005d863          	bgez	a1,800019e4 <__umodsi3+0x24>
800019d8:	40b005b3          	neg	a1,a1
800019dc:	f9dff06f          	j	80001978 <__udivsi3>
800019e0:	40b005b3          	neg	a1,a1
800019e4:	00008293          	mv	t0,ra
800019e8:	f91ff0ef          	jal	ra,80001978 <__udivsi3>
800019ec:	40a00533          	neg	a0,a0
800019f0:	00028067          	jr	t0

800019f4 <__modsi3>:
800019f4:	00008293          	mv	t0,ra
800019f8:	0005ca63          	bltz	a1,80001a0c <__modsi3+0x18>
800019fc:	00054c63          	bltz	a0,80001a14 <__modsi3+0x20>
80001a00:	f79ff0ef          	jal	ra,80001978 <__udivsi3>
80001a04:	00058513          	mv	a0,a1
80001a08:	00028067          	jr	t0
80001a0c:	40b005b3          	neg	a1,a1
80001a10:	fe0558e3          	bgez	a0,80001a00 <__modsi3+0xc>
80001a14:	40a00533          	neg	a0,a0
80001a18:	f61ff0ef          	jal	ra,80001978 <__udivsi3>
80001a1c:	40b00533          	neg	a0,a1
80001a20:	00028067          	jr	t0
80001a24:	0000                	unimp
	...
