
main.out:     file format elf32-littleriscv


Disassembly of section .text:

80010000 <_start-0x4>:
80010000:	0040006f          	j	80010004 <_start>

80010004 <_start>:
80010004:	00000117          	auipc	sp,0x0
80010008:	ffc10113          	addi	sp,sp,-4 # 80010000 <__stack_top>
8001000c:	00000097          	auipc	ra,0x0
80010010:	00c08093          	addi	ra,ra,12 # 80010018 <exec_done>
80010014:	4e50006f          	j	80010cf8 <main>

80010018 <exec_done>:
80010018:	0000006f          	j	80010018 <exec_done>
	...

80010084 <vsnprintf>:
80010084:	fb010113          	addi	sp,sp,-80
80010088:	04112623          	sw	ra,76(sp)
8001008c:	04812423          	sw	s0,72(sp)
80010090:	05010413          	addi	s0,sp,80
80010094:	faa42e23          	sw	a0,-68(s0)
80010098:	fab42c23          	sw	a1,-72(s0)
8001009c:	fac42a23          	sw	a2,-76(s0)
800100a0:	fad42823          	sw	a3,-80(s0)
800100a4:	fe0407a3          	sb	zero,-17(s0)
800100a8:	fe040723          	sb	zero,-18(s0)
800100ac:	fe042423          	sw	zero,-24(s0)
800100b0:	3f80006f          	j	800104a8 <vsnprintf+0x424>
800100b4:	fef44783          	lbu	a5,-17(s0)
800100b8:	38078663          	beqz	a5,80010444 <vsnprintf+0x3c0>
800100bc:	fb442783          	lw	a5,-76(s0)
800100c0:	0007c783          	lbu	a5,0(a5)
800100c4:	f9d78793          	addi	a5,a5,-99
800100c8:	01500713          	li	a4,21
800100cc:	3cf76663          	bltu	a4,a5,80010498 <vsnprintf+0x414>
800100d0:	00279713          	slli	a4,a5,0x2
800100d4:	800007b7          	lui	a5,0x80000
800100d8:	00078793          	mv	a5,a5
800100dc:	00f707b3          	add	a5,a4,a5
800100e0:	0007a783          	lw	a5,0(a5) # 80000000 <__modsi3+0xfffee714>
800100e4:	00078067          	jr	a5
800100e8:	00100793          	li	a5,1
800100ec:	fef40723          	sb	a5,-18(s0)
800100f0:	3ac0006f          	j	8001049c <vsnprintf+0x418>
800100f4:	00100793          	li	a5,1
800100f8:	fef40723          	sb	a5,-18(s0)
800100fc:	fe842783          	lw	a5,-24(s0)
80010100:	00178793          	addi	a5,a5,1
80010104:	fef42423          	sw	a5,-24(s0)
80010108:	fe842703          	lw	a4,-24(s0)
8001010c:	fb842783          	lw	a5,-72(s0)
80010110:	00f77e63          	bgeu	a4,a5,8001012c <vsnprintf+0xa8>
80010114:	fe842783          	lw	a5,-24(s0)
80010118:	fff78793          	addi	a5,a5,-1
8001011c:	fbc42703          	lw	a4,-68(s0)
80010120:	00f707b3          	add	a5,a4,a5
80010124:	03000713          	li	a4,48
80010128:	00e78023          	sb	a4,0(a5)
8001012c:	fe842783          	lw	a5,-24(s0)
80010130:	00178793          	addi	a5,a5,1
80010134:	fef42423          	sw	a5,-24(s0)
80010138:	fe842703          	lw	a4,-24(s0)
8001013c:	fb842783          	lw	a5,-72(s0)
80010140:	00f77e63          	bgeu	a4,a5,8001015c <vsnprintf+0xd8>
80010144:	fe842783          	lw	a5,-24(s0)
80010148:	fff78793          	addi	a5,a5,-1
8001014c:	fbc42703          	lw	a4,-68(s0)
80010150:	00f707b3          	add	a5,a4,a5
80010154:	07800713          	li	a4,120
80010158:	00e78023          	sb	a4,0(a5)
8001015c:	fee44783          	lbu	a5,-18(s0)
80010160:	00078c63          	beqz	a5,80010178 <vsnprintf+0xf4>
80010164:	fb042783          	lw	a5,-80(s0)
80010168:	00478713          	addi	a4,a5,4
8001016c:	fae42823          	sw	a4,-80(s0)
80010170:	0007a783          	lw	a5,0(a5)
80010174:	0140006f          	j	80010188 <vsnprintf+0x104>
80010178:	fb042783          	lw	a5,-80(s0)
8001017c:	00478713          	addi	a4,a5,4
80010180:	fae42823          	sw	a4,-80(s0)
80010184:	0007a783          	lw	a5,0(a5)
80010188:	fcf42623          	sw	a5,-52(s0)
8001018c:	00700793          	li	a5,7
80010190:	fef42223          	sw	a5,-28(s0)
80010194:	0840006f          	j	80010218 <vsnprintf+0x194>
80010198:	fe442783          	lw	a5,-28(s0)
8001019c:	00279793          	slli	a5,a5,0x2
800101a0:	fcc42703          	lw	a4,-52(s0)
800101a4:	40f757b3          	sra	a5,a4,a5
800101a8:	00f7f793          	andi	a5,a5,15
800101ac:	fcf42423          	sw	a5,-56(s0)
800101b0:	fe842783          	lw	a5,-24(s0)
800101b4:	00178793          	addi	a5,a5,1
800101b8:	fef42423          	sw	a5,-24(s0)
800101bc:	fe842703          	lw	a4,-24(s0)
800101c0:	fb842783          	lw	a5,-72(s0)
800101c4:	04f77463          	bgeu	a4,a5,8001020c <vsnprintf+0x188>
800101c8:	fc842703          	lw	a4,-56(s0)
800101cc:	00900793          	li	a5,9
800101d0:	00e7cc63          	blt	a5,a4,800101e8 <vsnprintf+0x164>
800101d4:	fc842783          	lw	a5,-56(s0)
800101d8:	0ff7f793          	andi	a5,a5,255
800101dc:	03078793          	addi	a5,a5,48
800101e0:	0ff7f793          	andi	a5,a5,255
800101e4:	0140006f          	j	800101f8 <vsnprintf+0x174>
800101e8:	fc842783          	lw	a5,-56(s0)
800101ec:	0ff7f793          	andi	a5,a5,255
800101f0:	05778793          	addi	a5,a5,87
800101f4:	0ff7f793          	andi	a5,a5,255
800101f8:	fe842703          	lw	a4,-24(s0)
800101fc:	fff70713          	addi	a4,a4,-1
80010200:	fbc42683          	lw	a3,-68(s0)
80010204:	00e68733          	add	a4,a3,a4
80010208:	00f70023          	sb	a5,0(a4)
8001020c:	fe442783          	lw	a5,-28(s0)
80010210:	fff78793          	addi	a5,a5,-1
80010214:	fef42223          	sw	a5,-28(s0)
80010218:	fe442783          	lw	a5,-28(s0)
8001021c:	f607dee3          	bgez	a5,80010198 <vsnprintf+0x114>
80010220:	fe040723          	sb	zero,-18(s0)
80010224:	fe0407a3          	sb	zero,-17(s0)
80010228:	2740006f          	j	8001049c <vsnprintf+0x418>
8001022c:	fee44783          	lbu	a5,-18(s0)
80010230:	00078c63          	beqz	a5,80010248 <vsnprintf+0x1c4>
80010234:	fb042783          	lw	a5,-80(s0)
80010238:	00478713          	addi	a4,a5,4
8001023c:	fae42823          	sw	a4,-80(s0)
80010240:	0007a783          	lw	a5,0(a5)
80010244:	0140006f          	j	80010258 <vsnprintf+0x1d4>
80010248:	fb042783          	lw	a5,-80(s0)
8001024c:	00478713          	addi	a4,a5,4
80010250:	fae42823          	sw	a4,-80(s0)
80010254:	0007a783          	lw	a5,0(a5)
80010258:	fef42023          	sw	a5,-32(s0)
8001025c:	fe042783          	lw	a5,-32(s0)
80010260:	0407d063          	bgez	a5,800102a0 <vsnprintf+0x21c>
80010264:	fe042783          	lw	a5,-32(s0)
80010268:	40f007b3          	neg	a5,a5
8001026c:	fef42023          	sw	a5,-32(s0)
80010270:	fe842783          	lw	a5,-24(s0)
80010274:	00178793          	addi	a5,a5,1
80010278:	fef42423          	sw	a5,-24(s0)
8001027c:	fe842703          	lw	a4,-24(s0)
80010280:	fb842783          	lw	a5,-72(s0)
80010284:	00f77e63          	bgeu	a4,a5,800102a0 <vsnprintf+0x21c>
80010288:	fe842783          	lw	a5,-24(s0)
8001028c:	fff78793          	addi	a5,a5,-1
80010290:	fbc42703          	lw	a4,-68(s0)
80010294:	00f707b3          	add	a5,a4,a5
80010298:	02d00713          	li	a4,45
8001029c:	00e78023          	sb	a4,0(a5)
800102a0:	00100793          	li	a5,1
800102a4:	fcf42e23          	sw	a5,-36(s0)
800102a8:	fe042783          	lw	a5,-32(s0)
800102ac:	fcf42c23          	sw	a5,-40(s0)
800102b0:	0100006f          	j	800102c0 <vsnprintf+0x23c>
800102b4:	fdc42783          	lw	a5,-36(s0)
800102b8:	00178793          	addi	a5,a5,1
800102bc:	fcf42e23          	sw	a5,-36(s0)
800102c0:	fd842783          	lw	a5,-40(s0)
800102c4:	00a00593          	li	a1,10
800102c8:	00078513          	mv	a0,a5
800102cc:	59c010ef          	jal	ra,80011868 <__divsi3>
800102d0:	00050793          	mv	a5,a0
800102d4:	fcf42c23          	sw	a5,-40(s0)
800102d8:	fd842783          	lw	a5,-40(s0)
800102dc:	fc079ce3          	bnez	a5,800102b4 <vsnprintf+0x230>
800102e0:	fdc42783          	lw	a5,-36(s0)
800102e4:	fff78793          	addi	a5,a5,-1
800102e8:	fcf42a23          	sw	a5,-44(s0)
800102ec:	0780006f          	j	80010364 <vsnprintf+0x2e0>
800102f0:	fd442703          	lw	a4,-44(s0)
800102f4:	fe842783          	lw	a5,-24(s0)
800102f8:	00f707b3          	add	a5,a4,a5
800102fc:	00178793          	addi	a5,a5,1
80010300:	fb842703          	lw	a4,-72(s0)
80010304:	02e7fe63          	bgeu	a5,a4,80010340 <vsnprintf+0x2bc>
80010308:	fe042783          	lw	a5,-32(s0)
8001030c:	00a00593          	li	a1,10
80010310:	00078513          	mv	a0,a5
80010314:	5d8010ef          	jal	ra,800118ec <__modsi3>
80010318:	00050793          	mv	a5,a0
8001031c:	0ff7f713          	andi	a4,a5,255
80010320:	fd442683          	lw	a3,-44(s0)
80010324:	fe842783          	lw	a5,-24(s0)
80010328:	00f687b3          	add	a5,a3,a5
8001032c:	fbc42683          	lw	a3,-68(s0)
80010330:	00f687b3          	add	a5,a3,a5
80010334:	03070713          	addi	a4,a4,48
80010338:	0ff77713          	andi	a4,a4,255
8001033c:	00e78023          	sb	a4,0(a5)
80010340:	fe042783          	lw	a5,-32(s0)
80010344:	00a00593          	li	a1,10
80010348:	00078513          	mv	a0,a5
8001034c:	51c010ef          	jal	ra,80011868 <__divsi3>
80010350:	00050793          	mv	a5,a0
80010354:	fef42023          	sw	a5,-32(s0)
80010358:	fd442783          	lw	a5,-44(s0)
8001035c:	fff78793          	addi	a5,a5,-1
80010360:	fcf42a23          	sw	a5,-44(s0)
80010364:	fd442783          	lw	a5,-44(s0)
80010368:	f807d4e3          	bgez	a5,800102f0 <vsnprintf+0x26c>
8001036c:	fdc42783          	lw	a5,-36(s0)
80010370:	fe842703          	lw	a4,-24(s0)
80010374:	00f707b3          	add	a5,a4,a5
80010378:	fef42423          	sw	a5,-24(s0)
8001037c:	fe040723          	sb	zero,-18(s0)
80010380:	fe0407a3          	sb	zero,-17(s0)
80010384:	1180006f          	j	8001049c <vsnprintf+0x418>
80010388:	fb042783          	lw	a5,-80(s0)
8001038c:	00478713          	addi	a4,a5,4
80010390:	fae42823          	sw	a4,-80(s0)
80010394:	0007a783          	lw	a5,0(a5)
80010398:	fcf42823          	sw	a5,-48(s0)
8001039c:	0440006f          	j	800103e0 <vsnprintf+0x35c>
800103a0:	fe842783          	lw	a5,-24(s0)
800103a4:	00178793          	addi	a5,a5,1
800103a8:	fef42423          	sw	a5,-24(s0)
800103ac:	fe842703          	lw	a4,-24(s0)
800103b0:	fb842783          	lw	a5,-72(s0)
800103b4:	02f77063          	bgeu	a4,a5,800103d4 <vsnprintf+0x350>
800103b8:	fe842783          	lw	a5,-24(s0)
800103bc:	fff78793          	addi	a5,a5,-1
800103c0:	fbc42703          	lw	a4,-68(s0)
800103c4:	00f707b3          	add	a5,a4,a5
800103c8:	fd042703          	lw	a4,-48(s0)
800103cc:	00074703          	lbu	a4,0(a4)
800103d0:	00e78023          	sb	a4,0(a5)
800103d4:	fd042783          	lw	a5,-48(s0)
800103d8:	00178793          	addi	a5,a5,1
800103dc:	fcf42823          	sw	a5,-48(s0)
800103e0:	fd042783          	lw	a5,-48(s0)
800103e4:	0007c783          	lbu	a5,0(a5)
800103e8:	fa079ce3          	bnez	a5,800103a0 <vsnprintf+0x31c>
800103ec:	fe040723          	sb	zero,-18(s0)
800103f0:	fe0407a3          	sb	zero,-17(s0)
800103f4:	0a80006f          	j	8001049c <vsnprintf+0x418>
800103f8:	fe842783          	lw	a5,-24(s0)
800103fc:	00178793          	addi	a5,a5,1
80010400:	fef42423          	sw	a5,-24(s0)
80010404:	fe842703          	lw	a4,-24(s0)
80010408:	fb842783          	lw	a5,-72(s0)
8001040c:	02f77663          	bgeu	a4,a5,80010438 <vsnprintf+0x3b4>
80010410:	fb042783          	lw	a5,-80(s0)
80010414:	00478713          	addi	a4,a5,4
80010418:	fae42823          	sw	a4,-80(s0)
8001041c:	0007a683          	lw	a3,0(a5)
80010420:	fe842783          	lw	a5,-24(s0)
80010424:	fff78793          	addi	a5,a5,-1
80010428:	fbc42703          	lw	a4,-68(s0)
8001042c:	00f707b3          	add	a5,a4,a5
80010430:	0ff6f713          	andi	a4,a3,255
80010434:	00e78023          	sb	a4,0(a5)
80010438:	fe040723          	sb	zero,-18(s0)
8001043c:	fe0407a3          	sb	zero,-17(s0)
80010440:	05c0006f          	j	8001049c <vsnprintf+0x418>
80010444:	fb442783          	lw	a5,-76(s0)
80010448:	0007c703          	lbu	a4,0(a5)
8001044c:	02500793          	li	a5,37
80010450:	00f71863          	bne	a4,a5,80010460 <vsnprintf+0x3dc>
80010454:	00100793          	li	a5,1
80010458:	fef407a3          	sb	a5,-17(s0)
8001045c:	0400006f          	j	8001049c <vsnprintf+0x418>
80010460:	fe842783          	lw	a5,-24(s0)
80010464:	00178793          	addi	a5,a5,1
80010468:	fef42423          	sw	a5,-24(s0)
8001046c:	fe842703          	lw	a4,-24(s0)
80010470:	fb842783          	lw	a5,-72(s0)
80010474:	02f77463          	bgeu	a4,a5,8001049c <vsnprintf+0x418>
80010478:	fe842783          	lw	a5,-24(s0)
8001047c:	fff78793          	addi	a5,a5,-1
80010480:	fbc42703          	lw	a4,-68(s0)
80010484:	00f707b3          	add	a5,a4,a5
80010488:	fb442703          	lw	a4,-76(s0)
8001048c:	00074703          	lbu	a4,0(a4)
80010490:	00e78023          	sb	a4,0(a5)
80010494:	0080006f          	j	8001049c <vsnprintf+0x418>
80010498:	00000013          	nop
8001049c:	fb442783          	lw	a5,-76(s0)
800104a0:	00178793          	addi	a5,a5,1
800104a4:	faf42a23          	sw	a5,-76(s0)
800104a8:	fb442783          	lw	a5,-76(s0)
800104ac:	0007c783          	lbu	a5,0(a5)
800104b0:	c00792e3          	bnez	a5,800100b4 <vsnprintf+0x30>
800104b4:	fe842703          	lw	a4,-24(s0)
800104b8:	fb842783          	lw	a5,-72(s0)
800104bc:	00f77c63          	bgeu	a4,a5,800104d4 <vsnprintf+0x450>
800104c0:	fbc42703          	lw	a4,-68(s0)
800104c4:	fe842783          	lw	a5,-24(s0)
800104c8:	00f707b3          	add	a5,a4,a5
800104cc:	00078023          	sb	zero,0(a5)
800104d0:	0200006f          	j	800104f0 <vsnprintf+0x46c>
800104d4:	fb842783          	lw	a5,-72(s0)
800104d8:	00078c63          	beqz	a5,800104f0 <vsnprintf+0x46c>
800104dc:	fb842783          	lw	a5,-72(s0)
800104e0:	fff78793          	addi	a5,a5,-1
800104e4:	fbc42703          	lw	a4,-68(s0)
800104e8:	00f707b3          	add	a5,a4,a5
800104ec:	00078023          	sb	zero,0(a5)
800104f0:	fe842783          	lw	a5,-24(s0)
800104f4:	00078513          	mv	a0,a5
800104f8:	04c12083          	lw	ra,76(sp)
800104fc:	04812403          	lw	s0,72(sp)
80010500:	05010113          	addi	sp,sp,80
80010504:	00008067          	ret

80010508 <snprintf>:
80010508:	fb010113          	addi	sp,sp,-80
8001050c:	02112623          	sw	ra,44(sp)
80010510:	02812423          	sw	s0,40(sp)
80010514:	03010413          	addi	s0,sp,48
80010518:	fca42e23          	sw	a0,-36(s0)
8001051c:	fcb42c23          	sw	a1,-40(s0)
80010520:	fcc42a23          	sw	a2,-44(s0)
80010524:	00d42623          	sw	a3,12(s0)
80010528:	00e42823          	sw	a4,16(s0)
8001052c:	00f42a23          	sw	a5,20(s0)
80010530:	01042c23          	sw	a6,24(s0)
80010534:	01142e23          	sw	a7,28(s0)
80010538:	02040793          	addi	a5,s0,32
8001053c:	fcf42823          	sw	a5,-48(s0)
80010540:	fd042783          	lw	a5,-48(s0)
80010544:	fec78793          	addi	a5,a5,-20
80010548:	fef42423          	sw	a5,-24(s0)
8001054c:	fe842783          	lw	a5,-24(s0)
80010550:	00078693          	mv	a3,a5
80010554:	fd442603          	lw	a2,-44(s0)
80010558:	fd842583          	lw	a1,-40(s0)
8001055c:	fdc42503          	lw	a0,-36(s0)
80010560:	b25ff0ef          	jal	ra,80010084 <vsnprintf>
80010564:	fea42623          	sw	a0,-20(s0)
80010568:	fec42783          	lw	a5,-20(s0)
8001056c:	00078513          	mv	a0,a5
80010570:	02c12083          	lw	ra,44(sp)
80010574:	02812403          	lw	s0,40(sp)
80010578:	05010113          	addi	sp,sp,80
8001057c:	00008067          	ret

80010580 <strcpy>:
80010580:	fd010113          	addi	sp,sp,-48
80010584:	02812623          	sw	s0,44(sp)
80010588:	03010413          	addi	s0,sp,48
8001058c:	fca42e23          	sw	a0,-36(s0)
80010590:	fcb42c23          	sw	a1,-40(s0)
80010594:	fe042623          	sw	zero,-20(s0)
80010598:	0300006f          	j	800105c8 <strcpy+0x48>
8001059c:	fd842703          	lw	a4,-40(s0)
800105a0:	fec42783          	lw	a5,-20(s0)
800105a4:	00f70733          	add	a4,a4,a5
800105a8:	fdc42683          	lw	a3,-36(s0)
800105ac:	fec42783          	lw	a5,-20(s0)
800105b0:	00f687b3          	add	a5,a3,a5
800105b4:	00074703          	lbu	a4,0(a4)
800105b8:	00e78023          	sb	a4,0(a5)
800105bc:	fec42783          	lw	a5,-20(s0)
800105c0:	00178793          	addi	a5,a5,1
800105c4:	fef42623          	sw	a5,-20(s0)
800105c8:	fd842703          	lw	a4,-40(s0)
800105cc:	fec42783          	lw	a5,-20(s0)
800105d0:	00f707b3          	add	a5,a4,a5
800105d4:	0007c783          	lbu	a5,0(a5)
800105d8:	fc0792e3          	bnez	a5,8001059c <strcpy+0x1c>
800105dc:	00000013          	nop
800105e0:	00078513          	mv	a0,a5
800105e4:	02c12403          	lw	s0,44(sp)
800105e8:	03010113          	addi	sp,sp,48
800105ec:	00008067          	ret

800105f0 <strcmp>:
800105f0:	fd010113          	addi	sp,sp,-48
800105f4:	02812623          	sw	s0,44(sp)
800105f8:	03010413          	addi	s0,sp,48
800105fc:	fca42e23          	sw	a0,-36(s0)
80010600:	fcb42c23          	sw	a1,-40(s0)
80010604:	fe042623          	sw	zero,-20(s0)
80010608:	0680006f          	j	80010670 <strcmp+0x80>
8001060c:	fdc42703          	lw	a4,-36(s0)
80010610:	fec42783          	lw	a5,-20(s0)
80010614:	00f707b3          	add	a5,a4,a5
80010618:	0007c703          	lbu	a4,0(a5)
8001061c:	fd842683          	lw	a3,-40(s0)
80010620:	fec42783          	lw	a5,-20(s0)
80010624:	00f687b3          	add	a5,a3,a5
80010628:	0007c783          	lbu	a5,0(a5)
8001062c:	00f77663          	bgeu	a4,a5,80010638 <strcmp+0x48>
80010630:	fff00793          	li	a5,-1
80010634:	0680006f          	j	8001069c <strcmp+0xac>
80010638:	fdc42703          	lw	a4,-36(s0)
8001063c:	fec42783          	lw	a5,-20(s0)
80010640:	00f707b3          	add	a5,a4,a5
80010644:	0007c703          	lbu	a4,0(a5)
80010648:	fd842683          	lw	a3,-40(s0)
8001064c:	fec42783          	lw	a5,-20(s0)
80010650:	00f687b3          	add	a5,a3,a5
80010654:	0007c783          	lbu	a5,0(a5)
80010658:	00e7f663          	bgeu	a5,a4,80010664 <strcmp+0x74>
8001065c:	fff00793          	li	a5,-1
80010660:	03c0006f          	j	8001069c <strcmp+0xac>
80010664:	fec42783          	lw	a5,-20(s0)
80010668:	00178793          	addi	a5,a5,1
8001066c:	fef42623          	sw	a5,-20(s0)
80010670:	fdc42703          	lw	a4,-36(s0)
80010674:	fec42783          	lw	a5,-20(s0)
80010678:	00f707b3          	add	a5,a4,a5
8001067c:	0007c783          	lbu	a5,0(a5)
80010680:	00078c63          	beqz	a5,80010698 <strcmp+0xa8>
80010684:	fd842703          	lw	a4,-40(s0)
80010688:	fec42783          	lw	a5,-20(s0)
8001068c:	00f707b3          	add	a5,a4,a5
80010690:	0007c783          	lbu	a5,0(a5)
80010694:	f6079ce3          	bnez	a5,8001060c <strcmp+0x1c>
80010698:	00000793          	li	a5,0
8001069c:	00078513          	mv	a0,a5
800106a0:	02c12403          	lw	s0,44(sp)
800106a4:	03010113          	addi	sp,sp,48
800106a8:	00008067          	ret

800106ac <Proc_6>:
800106ac:	fe010113          	addi	sp,sp,-32
800106b0:	00112e23          	sw	ra,28(sp)
800106b4:	00812c23          	sw	s0,24(sp)
800106b8:	02010413          	addi	s0,sp,32
800106bc:	fea42623          	sw	a0,-20(s0)
800106c0:	feb42423          	sw	a1,-24(s0)
800106c4:	fe842783          	lw	a5,-24(s0)
800106c8:	fec42703          	lw	a4,-20(s0)
800106cc:	00e7a023          	sw	a4,0(a5)
800106d0:	fec42503          	lw	a0,-20(s0)
800106d4:	40c000ef          	jal	ra,80010ae0 <Func_3>
800106d8:	00050793          	mv	a5,a0
800106dc:	00079863          	bnez	a5,800106ec <Proc_6+0x40>
800106e0:	fe842783          	lw	a5,-24(s0)
800106e4:	00300713          	li	a4,3
800106e8:	00e7a023          	sw	a4,0(a5)
800106ec:	fec42703          	lw	a4,-20(s0)
800106f0:	00400793          	li	a5,4
800106f4:	06e7ee63          	bltu	a5,a4,80010770 <Proc_6+0xc4>
800106f8:	fec42783          	lw	a5,-20(s0)
800106fc:	00279713          	slli	a4,a5,0x2
80010700:	800007b7          	lui	a5,0x80000
80010704:	05878793          	addi	a5,a5,88 # 80000058 <__modsi3+0xfffee76c>
80010708:	00f707b3          	add	a5,a4,a5
8001070c:	0007a783          	lw	a5,0(a5)
80010710:	00078067          	jr	a5
80010714:	fe842783          	lw	a5,-24(s0)
80010718:	0007a023          	sw	zero,0(a5)
8001071c:	0540006f          	j	80010770 <Proc_6+0xc4>
80010720:	800037b7          	lui	a5,0x80003
80010724:	d6c7a703          	lw	a4,-660(a5) # 80002d6c <__modsi3+0xffff1480>
80010728:	06400793          	li	a5,100
8001072c:	00e7d863          	bge	a5,a4,8001073c <Proc_6+0x90>
80010730:	fe842783          	lw	a5,-24(s0)
80010734:	0007a023          	sw	zero,0(a5)
80010738:	0380006f          	j	80010770 <Proc_6+0xc4>
8001073c:	fe842783          	lw	a5,-24(s0)
80010740:	00300713          	li	a4,3
80010744:	00e7a023          	sw	a4,0(a5)
80010748:	0280006f          	j	80010770 <Proc_6+0xc4>
8001074c:	fe842783          	lw	a5,-24(s0)
80010750:	00100713          	li	a4,1
80010754:	00e7a023          	sw	a4,0(a5)
80010758:	0180006f          	j	80010770 <Proc_6+0xc4>
8001075c:	fe842783          	lw	a5,-24(s0)
80010760:	00200713          	li	a4,2
80010764:	00e7a023          	sw	a4,0(a5)
80010768:	0080006f          	j	80010770 <Proc_6+0xc4>
8001076c:	00000013          	nop
80010770:	00000013          	nop
80010774:	00078513          	mv	a0,a5
80010778:	01c12083          	lw	ra,28(sp)
8001077c:	01812403          	lw	s0,24(sp)
80010780:	02010113          	addi	sp,sp,32
80010784:	00008067          	ret

80010788 <Proc_7>:
80010788:	fd010113          	addi	sp,sp,-48
8001078c:	02812623          	sw	s0,44(sp)
80010790:	03010413          	addi	s0,sp,48
80010794:	fca42e23          	sw	a0,-36(s0)
80010798:	fcb42c23          	sw	a1,-40(s0)
8001079c:	fcc42a23          	sw	a2,-44(s0)
800107a0:	fdc42783          	lw	a5,-36(s0)
800107a4:	00278793          	addi	a5,a5,2
800107a8:	fef42623          	sw	a5,-20(s0)
800107ac:	fd842703          	lw	a4,-40(s0)
800107b0:	fec42783          	lw	a5,-20(s0)
800107b4:	00f70733          	add	a4,a4,a5
800107b8:	fd442783          	lw	a5,-44(s0)
800107bc:	00e7a023          	sw	a4,0(a5)
800107c0:	00000013          	nop
800107c4:	00078513          	mv	a0,a5
800107c8:	02c12403          	lw	s0,44(sp)
800107cc:	03010113          	addi	sp,sp,48
800107d0:	00008067          	ret

800107d4 <Proc_8>:
800107d4:	fe010113          	addi	sp,sp,-32
800107d8:	00812e23          	sw	s0,28(sp)
800107dc:	00912c23          	sw	s1,24(sp)
800107e0:	01212a23          	sw	s2,20(sp)
800107e4:	02010413          	addi	s0,sp,32
800107e8:	fea42623          	sw	a0,-20(s0)
800107ec:	feb42423          	sw	a1,-24(s0)
800107f0:	fec42223          	sw	a2,-28(s0)
800107f4:	fed42023          	sw	a3,-32(s0)
800107f8:	fe442783          	lw	a5,-28(s0)
800107fc:	00578493          	addi	s1,a5,5
80010800:	00048793          	mv	a5,s1
80010804:	00279793          	slli	a5,a5,0x2
80010808:	fec42703          	lw	a4,-20(s0)
8001080c:	00f707b3          	add	a5,a4,a5
80010810:	fe042703          	lw	a4,-32(s0)
80010814:	00e7a023          	sw	a4,0(a5)
80010818:	00048793          	mv	a5,s1
8001081c:	00279793          	slli	a5,a5,0x2
80010820:	fec42703          	lw	a4,-20(s0)
80010824:	00f70733          	add	a4,a4,a5
80010828:	00048793          	mv	a5,s1
8001082c:	00178793          	addi	a5,a5,1
80010830:	00279793          	slli	a5,a5,0x2
80010834:	fec42683          	lw	a3,-20(s0)
80010838:	00f687b3          	add	a5,a3,a5
8001083c:	00072703          	lw	a4,0(a4)
80010840:	00e7a023          	sw	a4,0(a5)
80010844:	00048793          	mv	a5,s1
80010848:	01e78793          	addi	a5,a5,30
8001084c:	00279793          	slli	a5,a5,0x2
80010850:	fec42703          	lw	a4,-20(s0)
80010854:	00f707b3          	add	a5,a4,a5
80010858:	0097a023          	sw	s1,0(a5)
8001085c:	00048913          	mv	s2,s1
80010860:	03c0006f          	j	8001089c <Proc_8+0xc8>
80010864:	00048713          	mv	a4,s1
80010868:	00070793          	mv	a5,a4
8001086c:	00179793          	slli	a5,a5,0x1
80010870:	00e787b3          	add	a5,a5,a4
80010874:	00379793          	slli	a5,a5,0x3
80010878:	00e787b3          	add	a5,a5,a4
8001087c:	00379793          	slli	a5,a5,0x3
80010880:	00078713          	mv	a4,a5
80010884:	fe842783          	lw	a5,-24(s0)
80010888:	00e78733          	add	a4,a5,a4
8001088c:	00291793          	slli	a5,s2,0x2
80010890:	00f707b3          	add	a5,a4,a5
80010894:	0097a023          	sw	s1,0(a5)
80010898:	00190913          	addi	s2,s2,1
8001089c:	00148793          	addi	a5,s1,1
800108a0:	fd27d2e3          	bge	a5,s2,80010864 <Proc_8+0x90>
800108a4:	00048713          	mv	a4,s1
800108a8:	00070793          	mv	a5,a4
800108ac:	00179793          	slli	a5,a5,0x1
800108b0:	00e787b3          	add	a5,a5,a4
800108b4:	00379793          	slli	a5,a5,0x3
800108b8:	00e787b3          	add	a5,a5,a4
800108bc:	00379793          	slli	a5,a5,0x3
800108c0:	00078713          	mv	a4,a5
800108c4:	fe842783          	lw	a5,-24(s0)
800108c8:	00e78733          	add	a4,a5,a4
800108cc:	fff48793          	addi	a5,s1,-1
800108d0:	00279793          	slli	a5,a5,0x2
800108d4:	00f707b3          	add	a5,a4,a5
800108d8:	0007a603          	lw	a2,0(a5)
800108dc:	00048713          	mv	a4,s1
800108e0:	00070793          	mv	a5,a4
800108e4:	00179793          	slli	a5,a5,0x1
800108e8:	00e787b3          	add	a5,a5,a4
800108ec:	00379793          	slli	a5,a5,0x3
800108f0:	00e787b3          	add	a5,a5,a4
800108f4:	00379793          	slli	a5,a5,0x3
800108f8:	00078713          	mv	a4,a5
800108fc:	fe842783          	lw	a5,-24(s0)
80010900:	00e786b3          	add	a3,a5,a4
80010904:	fff48793          	addi	a5,s1,-1
80010908:	00160713          	addi	a4,a2,1
8001090c:	00279793          	slli	a5,a5,0x2
80010910:	00f687b3          	add	a5,a3,a5
80010914:	00e7a023          	sw	a4,0(a5)
80010918:	00048793          	mv	a5,s1
8001091c:	00279793          	slli	a5,a5,0x2
80010920:	fec42703          	lw	a4,-20(s0)
80010924:	00f70633          	add	a2,a4,a5
80010928:	00048713          	mv	a4,s1
8001092c:	00070793          	mv	a5,a4
80010930:	00179793          	slli	a5,a5,0x1
80010934:	00e787b3          	add	a5,a5,a4
80010938:	00379793          	slli	a5,a5,0x3
8001093c:	00e787b3          	add	a5,a5,a4
80010940:	00379793          	slli	a5,a5,0x3
80010944:	00078713          	mv	a4,a5
80010948:	000017b7          	lui	a5,0x1
8001094c:	fa078793          	addi	a5,a5,-96 # fa0 <Reg-0x7ffff6a0>
80010950:	00f707b3          	add	a5,a4,a5
80010954:	fe842703          	lw	a4,-24(s0)
80010958:	00f706b3          	add	a3,a4,a5
8001095c:	00062703          	lw	a4,0(a2)
80010960:	00249793          	slli	a5,s1,0x2
80010964:	00f687b3          	add	a5,a3,a5
80010968:	00e7a023          	sw	a4,0(a5)
8001096c:	800037b7          	lui	a5,0x80003
80010970:	00500713          	li	a4,5
80010974:	d6e7a623          	sw	a4,-660(a5) # 80002d6c <__modsi3+0xffff1480>
80010978:	00000013          	nop
8001097c:	00078513          	mv	a0,a5
80010980:	01c12403          	lw	s0,28(sp)
80010984:	01812483          	lw	s1,24(sp)
80010988:	01412903          	lw	s2,20(sp)
8001098c:	02010113          	addi	sp,sp,32
80010990:	00008067          	ret

80010994 <Func_1>:
80010994:	fd010113          	addi	sp,sp,-48
80010998:	02812623          	sw	s0,44(sp)
8001099c:	03010413          	addi	s0,sp,48
800109a0:	00050793          	mv	a5,a0
800109a4:	00058713          	mv	a4,a1
800109a8:	fcf40e23          	sb	a5,-36(s0)
800109ac:	00070793          	mv	a5,a4
800109b0:	fcf40c23          	sb	a5,-40(s0)
800109b4:	fdc44783          	lbu	a5,-36(s0)
800109b8:	fef407a3          	sb	a5,-17(s0)
800109bc:	fef44783          	lbu	a5,-17(s0)
800109c0:	fef40723          	sb	a5,-18(s0)
800109c4:	fee44703          	lbu	a4,-18(s0)
800109c8:	fd844783          	lbu	a5,-40(s0)
800109cc:	00f70663          	beq	a4,a5,800109d8 <Func_1+0x44>
800109d0:	00000793          	li	a5,0
800109d4:	0140006f          	j	800109e8 <Func_1+0x54>
800109d8:	800037b7          	lui	a5,0x80003
800109dc:	fef44703          	lbu	a4,-17(s0)
800109e0:	d6e78823          	sb	a4,-656(a5) # 80002d70 <__modsi3+0xffff1484>
800109e4:	00100793          	li	a5,1
800109e8:	00078513          	mv	a0,a5
800109ec:	02c12403          	lw	s0,44(sp)
800109f0:	03010113          	addi	sp,sp,48
800109f4:	00008067          	ret

800109f8 <Func_2>:
800109f8:	fd010113          	addi	sp,sp,-48
800109fc:	02112623          	sw	ra,44(sp)
80010a00:	02812423          	sw	s0,40(sp)
80010a04:	02912223          	sw	s1,36(sp)
80010a08:	03010413          	addi	s0,sp,48
80010a0c:	fca42e23          	sw	a0,-36(s0)
80010a10:	fcb42c23          	sw	a1,-40(s0)
80010a14:	00200493          	li	s1,2
80010a18:	04c0006f          	j	80010a64 <Func_2+0x6c>
80010a1c:	00048713          	mv	a4,s1
80010a20:	fdc42783          	lw	a5,-36(s0)
80010a24:	00e787b3          	add	a5,a5,a4
80010a28:	0007c783          	lbu	a5,0(a5)
80010a2c:	00078693          	mv	a3,a5
80010a30:	00048793          	mv	a5,s1
80010a34:	00178793          	addi	a5,a5,1
80010a38:	fd842703          	lw	a4,-40(s0)
80010a3c:	00f707b3          	add	a5,a4,a5
80010a40:	0007c783          	lbu	a5,0(a5)
80010a44:	00078593          	mv	a1,a5
80010a48:	00068513          	mv	a0,a3
80010a4c:	f49ff0ef          	jal	ra,80010994 <Func_1>
80010a50:	00050793          	mv	a5,a0
80010a54:	00079863          	bnez	a5,80010a64 <Func_2+0x6c>
80010a58:	04100793          	li	a5,65
80010a5c:	fef407a3          	sb	a5,-17(s0)
80010a60:	00148493          	addi	s1,s1,1
80010a64:	00200793          	li	a5,2
80010a68:	fa97dae3          	bge	a5,s1,80010a1c <Func_2+0x24>
80010a6c:	fef44703          	lbu	a4,-17(s0)
80010a70:	05600793          	li	a5,86
80010a74:	00e7fa63          	bgeu	a5,a4,80010a88 <Func_2+0x90>
80010a78:	fef44703          	lbu	a4,-17(s0)
80010a7c:	05900793          	li	a5,89
80010a80:	00e7e463          	bltu	a5,a4,80010a88 <Func_2+0x90>
80010a84:	00700493          	li	s1,7
80010a88:	fef44703          	lbu	a4,-17(s0)
80010a8c:	05200793          	li	a5,82
80010a90:	00f71663          	bne	a4,a5,80010a9c <Func_2+0xa4>
80010a94:	00100793          	li	a5,1
80010a98:	0300006f          	j	80010ac8 <Func_2+0xd0>
80010a9c:	fd842583          	lw	a1,-40(s0)
80010aa0:	fdc42503          	lw	a0,-36(s0)
80010aa4:	b4dff0ef          	jal	ra,800105f0 <strcmp>
80010aa8:	00050793          	mv	a5,a0
80010aac:	00f05c63          	blez	a5,80010ac4 <Func_2+0xcc>
80010ab0:	00748493          	addi	s1,s1,7
80010ab4:	800037b7          	lui	a5,0x80003
80010ab8:	d697a623          	sw	s1,-660(a5) # 80002d6c <__modsi3+0xffff1480>
80010abc:	00100793          	li	a5,1
80010ac0:	0080006f          	j	80010ac8 <Func_2+0xd0>
80010ac4:	00000793          	li	a5,0
80010ac8:	00078513          	mv	a0,a5
80010acc:	02c12083          	lw	ra,44(sp)
80010ad0:	02812403          	lw	s0,40(sp)
80010ad4:	02412483          	lw	s1,36(sp)
80010ad8:	03010113          	addi	sp,sp,48
80010adc:	00008067          	ret

80010ae0 <Func_3>:
80010ae0:	fd010113          	addi	sp,sp,-48
80010ae4:	02812623          	sw	s0,44(sp)
80010ae8:	03010413          	addi	s0,sp,48
80010aec:	fca42e23          	sw	a0,-36(s0)
80010af0:	fdc42783          	lw	a5,-36(s0)
80010af4:	fef42623          	sw	a5,-20(s0)
80010af8:	fec42703          	lw	a4,-20(s0)
80010afc:	00200793          	li	a5,2
80010b00:	00f71663          	bne	a4,a5,80010b0c <Func_3+0x2c>
80010b04:	00100793          	li	a5,1
80010b08:	0080006f          	j	80010b10 <Func_3+0x30>
80010b0c:	00000793          	li	a5,0
80010b10:	00078513          	mv	a0,a5
80010b14:	02c12403          	lw	s0,44(sp)
80010b18:	03010113          	addi	sp,sp,48
80010b1c:	00008067          	ret

80010b20 <memcpy>:
80010b20:	fd010113          	addi	sp,sp,-48
80010b24:	02812623          	sw	s0,44(sp)
80010b28:	03010413          	addi	s0,sp,48
80010b2c:	fca42e23          	sw	a0,-36(s0)
80010b30:	fcb42c23          	sw	a1,-40(s0)
80010b34:	fcc42a23          	sw	a2,-44(s0)
80010b38:	fe042623          	sw	zero,-20(s0)
80010b3c:	0300006f          	j	80010b6c <memcpy+0x4c>
80010b40:	fd842703          	lw	a4,-40(s0)
80010b44:	fec42783          	lw	a5,-20(s0)
80010b48:	00f70733          	add	a4,a4,a5
80010b4c:	fdc42683          	lw	a3,-36(s0)
80010b50:	fec42783          	lw	a5,-20(s0)
80010b54:	00f687b3          	add	a5,a3,a5
80010b58:	00074703          	lbu	a4,0(a4)
80010b5c:	00e78023          	sb	a4,0(a5)
80010b60:	fec42783          	lw	a5,-20(s0)
80010b64:	00178793          	addi	a5,a5,1
80010b68:	fef42623          	sw	a5,-20(s0)
80010b6c:	fec42703          	lw	a4,-20(s0)
80010b70:	fd442783          	lw	a5,-44(s0)
80010b74:	fcf766e3          	bltu	a4,a5,80010b40 <memcpy+0x20>
80010b78:	00000013          	nop
80010b7c:	00078513          	mv	a0,a5
80010b80:	02c12403          	lw	s0,44(sp)
80010b84:	03010113          	addi	sp,sp,48
80010b88:	00008067          	ret

80010b8c <time>:
80010b8c:	fd010113          	addi	sp,sp,-48
80010b90:	02812623          	sw	s0,44(sp)
80010b94:	03010413          	addi	s0,sp,48
80010b98:	fca42e23          	sw	a0,-36(s0)
80010b9c:	c00007b7          	lui	a5,0xc0000
80010ba0:	00478793          	addi	a5,a5,4 # c0000004 <__modsi3+0x3ffee718>
80010ba4:	0007a783          	lw	a5,0(a5)
80010ba8:	fef42623          	sw	a5,-20(s0)
80010bac:	fdc42783          	lw	a5,-36(s0)
80010bb0:	00078863          	beqz	a5,80010bc0 <time+0x34>
80010bb4:	fec42703          	lw	a4,-20(s0)
80010bb8:	fdc42783          	lw	a5,-36(s0)
80010bbc:	00e7a023          	sw	a4,0(a5)
80010bc0:	fec42783          	lw	a5,-20(s0)
80010bc4:	00078513          	mv	a0,a5
80010bc8:	02c12403          	lw	s0,44(sp)
80010bcc:	03010113          	addi	sp,sp,48
80010bd0:	00008067          	ret

80010bd4 <_putchar>:
80010bd4:	fe010113          	addi	sp,sp,-32
80010bd8:	00812e23          	sw	s0,28(sp)
80010bdc:	02010413          	addi	s0,sp,32
80010be0:	00050793          	mv	a5,a0
80010be4:	fef407a3          	sb	a5,-17(s0)
80010be8:	00000013          	nop
80010bec:	c00017b7          	lui	a5,0xc0001
80010bf0:	0007c783          	lbu	a5,0(a5) # c0001000 <__modsi3+0x3ffef714>
80010bf4:	0ff7f793          	andi	a5,a5,255
80010bf8:	0017f793          	andi	a5,a5,1
80010bfc:	fe0798e3          	bnez	a5,80010bec <_putchar+0x18>
80010c00:	c00017b7          	lui	a5,0xc0001
80010c04:	00178793          	addi	a5,a5,1 # c0001001 <__modsi3+0x3ffef715>
80010c08:	fef44703          	lbu	a4,-17(s0)
80010c0c:	00e78023          	sb	a4,0(a5)
80010c10:	00000013          	nop
80010c14:	01c12403          	lw	s0,28(sp)
80010c18:	02010113          	addi	sp,sp,32
80010c1c:	00008067          	ret

80010c20 <putLine>:
80010c20:	fe010113          	addi	sp,sp,-32
80010c24:	00112e23          	sw	ra,28(sp)
80010c28:	00812c23          	sw	s0,24(sp)
80010c2c:	02010413          	addi	s0,sp,32
80010c30:	fea42623          	sw	a0,-20(s0)
80010c34:	0200006f          	j	80010c54 <putLine+0x34>
80010c38:	fec42783          	lw	a5,-20(s0)
80010c3c:	0007c783          	lbu	a5,0(a5)
80010c40:	00078513          	mv	a0,a5
80010c44:	f91ff0ef          	jal	ra,80010bd4 <_putchar>
80010c48:	fec42783          	lw	a5,-20(s0)
80010c4c:	00178793          	addi	a5,a5,1
80010c50:	fef42623          	sw	a5,-20(s0)
80010c54:	fec42783          	lw	a5,-20(s0)
80010c58:	0007c783          	lbu	a5,0(a5)
80010c5c:	fc079ee3          	bnez	a5,80010c38 <putLine+0x18>
80010c60:	00000013          	nop
80010c64:	00000013          	nop
80010c68:	01c12083          	lw	ra,28(sp)
80010c6c:	01812403          	lw	s0,24(sp)
80010c70:	02010113          	addi	sp,sp,32
80010c74:	00008067          	ret

80010c78 <debug_printf>:
80010c78:	eb010113          	addi	sp,sp,-336
80010c7c:	12112623          	sw	ra,300(sp)
80010c80:	12812423          	sw	s0,296(sp)
80010c84:	13010413          	addi	s0,sp,304
80010c88:	eca42e23          	sw	a0,-292(s0)
80010c8c:	00b42223          	sw	a1,4(s0)
80010c90:	00c42423          	sw	a2,8(s0)
80010c94:	00d42623          	sw	a3,12(s0)
80010c98:	00e42823          	sw	a4,16(s0)
80010c9c:	00f42a23          	sw	a5,20(s0)
80010ca0:	01042c23          	sw	a6,24(s0)
80010ca4:	01142e23          	sw	a7,28(s0)
80010ca8:	02040793          	addi	a5,s0,32
80010cac:	ecf42c23          	sw	a5,-296(s0)
80010cb0:	ed842783          	lw	a5,-296(s0)
80010cb4:	fe478793          	addi	a5,a5,-28
80010cb8:	eef42623          	sw	a5,-276(s0)
80010cbc:	eec42703          	lw	a4,-276(s0)
80010cc0:	ef040793          	addi	a5,s0,-272
80010cc4:	00070693          	mv	a3,a4
80010cc8:	edc42603          	lw	a2,-292(s0)
80010ccc:	0ff00593          	li	a1,255
80010cd0:	00078513          	mv	a0,a5
80010cd4:	bb0ff0ef          	jal	ra,80010084 <vsnprintf>
80010cd8:	ef040793          	addi	a5,s0,-272
80010cdc:	00078513          	mv	a0,a5
80010ce0:	f41ff0ef          	jal	ra,80010c20 <putLine>
80010ce4:	00000013          	nop
80010ce8:	12c12083          	lw	ra,300(sp)
80010cec:	12812403          	lw	s0,296(sp)
80010cf0:	15010113          	addi	sp,sp,336
80010cf4:	00008067          	ret

80010cf8 <main>:
80010cf8:	e8010113          	addi	sp,sp,-384
80010cfc:	16112e23          	sw	ra,380(sp)
80010d00:	16812c23          	sw	s0,376(sp)
80010d04:	16912a23          	sw	s1,372(sp)
80010d08:	17212823          	sw	s2,368(sp)
80010d0c:	17312623          	sw	s3,364(sp)
80010d10:	17412423          	sw	s4,360(sp)
80010d14:	18010413          	addi	s0,sp,384
80010d18:	e8a42623          	sw	a0,-372(s0)
80010d1c:	e8b42423          	sw	a1,-376(s0)
80010d20:	e9440713          	addi	a4,s0,-364
80010d24:	07b00693          	li	a3,123
80010d28:	800007b7          	lui	a5,0x80000
80010d2c:	06c78613          	addi	a2,a5,108 # 8000006c <__modsi3+0xfffee780>
80010d30:	10000593          	li	a1,256
80010d34:	00070513          	mv	a0,a4
80010d38:	fd0ff0ef          	jal	ra,80010508 <snprintf>
80010d3c:	e9440793          	addi	a5,s0,-364
80010d40:	00078513          	mv	a0,a5
80010d44:	eddff0ef          	jal	ra,80010c20 <putLine>
80010d48:	000187b7          	lui	a5,0x18
80010d4c:	6a078913          	addi	s2,a5,1696 # 186a0 <Reg-0x7ffe7fa0>
80010d50:	fc010113          	addi	sp,sp,-64
80010d54:	00010793          	mv	a5,sp
80010d58:	00f78793          	addi	a5,a5,15
80010d5c:	0047d793          	srli	a5,a5,0x4
80010d60:	00479793          	slli	a5,a5,0x4
80010d64:	00078713          	mv	a4,a5
80010d68:	800037b7          	lui	a5,0x80003
80010d6c:	d6e7a423          	sw	a4,-664(a5) # 80002d68 <__modsi3+0xffff147c>
80010d70:	fc010113          	addi	sp,sp,-64
80010d74:	00010793          	mv	a5,sp
80010d78:	00f78793          	addi	a5,a5,15
80010d7c:	0047d793          	srli	a5,a5,0x4
80010d80:	00479793          	slli	a5,a5,0x4
80010d84:	00078713          	mv	a4,a5
80010d88:	800037b7          	lui	a5,0x80003
80010d8c:	d6e7aa23          	sw	a4,-652(a5) # 80002d74 <__modsi3+0xffff1488>
80010d90:	800037b7          	lui	a5,0x80003
80010d94:	d747a783          	lw	a5,-652(a5) # 80002d74 <__modsi3+0xffff1488>
80010d98:	80003737          	lui	a4,0x80003
80010d9c:	d6872703          	lw	a4,-664(a4) # 80002d68 <__modsi3+0xffff147c>
80010da0:	00e7a023          	sw	a4,0(a5)
80010da4:	800037b7          	lui	a5,0x80003
80010da8:	d747a783          	lw	a5,-652(a5) # 80002d74 <__modsi3+0xffff1488>
80010dac:	0007a223          	sw	zero,4(a5)
80010db0:	800037b7          	lui	a5,0x80003
80010db4:	d747a783          	lw	a5,-652(a5) # 80002d74 <__modsi3+0xffff1488>
80010db8:	00200713          	li	a4,2
80010dbc:	00e7a423          	sw	a4,8(a5)
80010dc0:	800037b7          	lui	a5,0x80003
80010dc4:	d747a783          	lw	a5,-652(a5) # 80002d74 <__modsi3+0xffff1488>
80010dc8:	02800713          	li	a4,40
80010dcc:	00e7a623          	sw	a4,12(a5)
80010dd0:	800037b7          	lui	a5,0x80003
80010dd4:	d747a783          	lw	a5,-652(a5) # 80002d74 <__modsi3+0xffff1488>
80010dd8:	01078713          	addi	a4,a5,16
80010ddc:	800007b7          	lui	a5,0x80000
80010de0:	08c78593          	addi	a1,a5,140 # 8000008c <__modsi3+0xfffee7a0>
80010de4:	00070513          	mv	a0,a4
80010de8:	f98ff0ef          	jal	ra,80010580 <strcpy>
80010dec:	fb440713          	addi	a4,s0,-76
80010df0:	800007b7          	lui	a5,0x80000
80010df4:	0ac78593          	addi	a1,a5,172 # 800000ac <__modsi3+0xfffee7c0>
80010df8:	00070513          	mv	a0,a4
80010dfc:	f84ff0ef          	jal	ra,80010580 <strcpy>
80010e00:	800007b7          	lui	a5,0x80000
80010e04:	65478793          	addi	a5,a5,1620 # 80000654 <__modsi3+0xfffeed68>
80010e08:	00a00713          	li	a4,10
80010e0c:	64e7ae23          	sw	a4,1628(a5)
80010e10:	800007b7          	lui	a5,0x80000
80010e14:	0cc78513          	addi	a0,a5,204 # 800000cc <__modsi3+0xfffee7e0>
80010e18:	e61ff0ef          	jal	ra,80010c78 <debug_printf>
80010e1c:	800007b7          	lui	a5,0x80000
80010e20:	0d078593          	addi	a1,a5,208 # 800000d0 <__modsi3+0xfffee7e4>
80010e24:	800007b7          	lui	a5,0x80000
80010e28:	0e078513          	addi	a0,a5,224 # 800000e0 <__modsi3+0xfffee7f4>
80010e2c:	e4dff0ef          	jal	ra,80010c78 <debug_printf>
80010e30:	800007b7          	lui	a5,0x80000
80010e34:	6407a783          	lw	a5,1600(a5) # 80000640 <__modsi3+0xfffeed54>
80010e38:	00078a63          	beqz	a5,80010e4c <main+0x154>
80010e3c:	800007b7          	lui	a5,0x80000
80010e40:	10478513          	addi	a0,a5,260 # 80000104 <__modsi3+0xfffee818>
80010e44:	e35ff0ef          	jal	ra,80010c78 <debug_printf>
80010e48:	0100006f          	j	80010e58 <main+0x160>
80010e4c:	800007b7          	lui	a5,0x80000
80010e50:	13478513          	addi	a0,a5,308 # 80000134 <__modsi3+0xfffee848>
80010e54:	e25ff0ef          	jal	ra,80010c78 <debug_printf>
80010e58:	00100613          	li	a2,1
80010e5c:	800007b7          	lui	a5,0x80000
80010e60:	16478593          	addi	a1,a5,356 # 80000164 <__modsi3+0xfffee878>
80010e64:	800007b7          	lui	a5,0x80000
80010e68:	16c78513          	addi	a0,a5,364 # 8000016c <__modsi3+0xfffee880>
80010e6c:	e0dff0ef          	jal	ra,80010c78 <debug_printf>
80010e70:	800007b7          	lui	a5,0x80000
80010e74:	0cc78513          	addi	a0,a5,204 # 800000cc <__modsi3+0xfffee7e0>
80010e78:	e01ff0ef          	jal	ra,80010c78 <debug_printf>
80010e7c:	800037b7          	lui	a5,0x80003
80010e80:	d607ac23          	sw	zero,-648(a5) # 80002d78 <__modsi3+0xffff148c>
80010e84:	24c0006f          	j	800110d0 <main+0x3d8>
80010e88:	00090593          	mv	a1,s2
80010e8c:	800007b7          	lui	a5,0x80000
80010e90:	18078513          	addi	a0,a5,384 # 80000180 <__modsi3+0xfffee894>
80010e94:	de5ff0ef          	jal	ra,80010c78 <debug_printf>
80010e98:	00000513          	li	a0,0
80010e9c:	cf1ff0ef          	jal	ra,80010b8c <time>
80010ea0:	00050713          	mv	a4,a0
80010ea4:	800007b7          	lui	a5,0x80000
80010ea8:	64e7a823          	sw	a4,1616(a5) # 80000650 <__modsi3+0xfffeed64>
80010eac:	00100993          	li	s3,1
80010eb0:	1a00006f          	j	80011050 <main+0x358>
80010eb4:	15d000ef          	jal	ra,80011810 <Proc_5>
80010eb8:	0fd000ef          	jal	ra,800117b4 <Proc_4>
80010ebc:	00200793          	li	a5,2
80010ec0:	fcf42e23          	sw	a5,-36(s0)
80010ec4:	00300493          	li	s1,3
80010ec8:	f9440713          	addi	a4,s0,-108
80010ecc:	800007b7          	lui	a5,0x80000
80010ed0:	1a478593          	addi	a1,a5,420 # 800001a4 <__modsi3+0xfffee8b8>
80010ed4:	00070513          	mv	a0,a4
80010ed8:	ea8ff0ef          	jal	ra,80010580 <strcpy>
80010edc:	00100793          	li	a5,1
80010ee0:	fcf42a23          	sw	a5,-44(s0)
80010ee4:	f9440713          	addi	a4,s0,-108
80010ee8:	fb440793          	addi	a5,s0,-76
80010eec:	00070593          	mv	a1,a4
80010ef0:	00078513          	mv	a0,a5
80010ef4:	b05ff0ef          	jal	ra,800109f8 <Func_2>
80010ef8:	00050793          	mv	a5,a0
80010efc:	0017b793          	seqz	a5,a5
80010f00:	0ff7f793          	andi	a5,a5,255
80010f04:	00078713          	mv	a4,a5
80010f08:	800037b7          	lui	a5,0x80003
80010f0c:	e4e7a223          	sw	a4,-444(a5) # 80002e44 <__modsi3+0xffff1558>
80010f10:	0400006f          	j	80010f50 <main+0x258>
80010f14:	fdc42703          	lw	a4,-36(s0)
80010f18:	00070793          	mv	a5,a4
80010f1c:	00279793          	slli	a5,a5,0x2
80010f20:	00e787b3          	add	a5,a5,a4
80010f24:	409787b3          	sub	a5,a5,s1
80010f28:	fcf42c23          	sw	a5,-40(s0)
80010f2c:	fdc42783          	lw	a5,-36(s0)
80010f30:	fd840713          	addi	a4,s0,-40
80010f34:	00070613          	mv	a2,a4
80010f38:	00048593          	mv	a1,s1
80010f3c:	00078513          	mv	a0,a5
80010f40:	849ff0ef          	jal	ra,80010788 <Proc_7>
80010f44:	fdc42783          	lw	a5,-36(s0)
80010f48:	00178793          	addi	a5,a5,1
80010f4c:	fcf42e23          	sw	a5,-36(s0)
80010f50:	fdc42783          	lw	a5,-36(s0)
80010f54:	fc97c0e3          	blt	a5,s1,80010f14 <main+0x21c>
80010f58:	fdc42783          	lw	a5,-36(s0)
80010f5c:	fd842703          	lw	a4,-40(s0)
80010f60:	00070693          	mv	a3,a4
80010f64:	00078613          	mv	a2,a5
80010f68:	800007b7          	lui	a5,0x80000
80010f6c:	65478593          	addi	a1,a5,1620 # 80000654 <__modsi3+0xfffeed68>
80010f70:	800037b7          	lui	a5,0x80003
80010f74:	d7c78513          	addi	a0,a5,-644 # 80002d7c <__modsi3+0xffff1490>
80010f78:	85dff0ef          	jal	ra,800107d4 <Proc_8>
80010f7c:	800037b7          	lui	a5,0x80003
80010f80:	d747a783          	lw	a5,-652(a5) # 80002d74 <__modsi3+0xffff1488>
80010f84:	00078513          	mv	a0,a5
80010f88:	5c4000ef          	jal	ra,8001154c <Proc_1>
80010f8c:	04100a13          	li	s4,65
80010f90:	0580006f          	j	80010fe8 <main+0x2f0>
80010f94:	000a0793          	mv	a5,s4
80010f98:	04300593          	li	a1,67
80010f9c:	00078513          	mv	a0,a5
80010fa0:	9f5ff0ef          	jal	ra,80010994 <Func_1>
80010fa4:	00050713          	mv	a4,a0
80010fa8:	fd442783          	lw	a5,-44(s0)
80010fac:	02f71a63          	bne	a4,a5,80010fe0 <main+0x2e8>
80010fb0:	fd440793          	addi	a5,s0,-44
80010fb4:	00078593          	mv	a1,a5
80010fb8:	00000513          	li	a0,0
80010fbc:	ef0ff0ef          	jal	ra,800106ac <Proc_6>
80010fc0:	f9440713          	addi	a4,s0,-108
80010fc4:	800007b7          	lui	a5,0x80000
80010fc8:	1c478593          	addi	a1,a5,452 # 800001c4 <__modsi3+0xfffee8d8>
80010fcc:	00070513          	mv	a0,a4
80010fd0:	db0ff0ef          	jal	ra,80010580 <strcpy>
80010fd4:	00098493          	mv	s1,s3
80010fd8:	800037b7          	lui	a5,0x80003
80010fdc:	d737a623          	sw	s3,-660(a5) # 80002d6c <__modsi3+0xffff1480>
80010fe0:	001a0793          	addi	a5,s4,1
80010fe4:	0ff7fa13          	andi	s4,a5,255
80010fe8:	800037b7          	lui	a5,0x80003
80010fec:	d717c783          	lbu	a5,-655(a5) # 80002d71 <__modsi3+0xffff1485>
80010ff0:	fb47f2e3          	bgeu	a5,s4,80010f94 <main+0x29c>
80010ff4:	fdc42783          	lw	a5,-36(s0)
80010ff8:	00078593          	mv	a1,a5
80010ffc:	00048513          	mv	a0,s1
80011000:	045000ef          	jal	ra,80011844 <__mulsi3>
80011004:	00050793          	mv	a5,a0
80011008:	00078493          	mv	s1,a5
8001100c:	fd842783          	lw	a5,-40(s0)
80011010:	00078593          	mv	a1,a5
80011014:	00048513          	mv	a0,s1
80011018:	051000ef          	jal	ra,80011868 <__divsi3>
8001101c:	00050793          	mv	a5,a0
80011020:	fcf42e23          	sw	a5,-36(s0)
80011024:	fd842783          	lw	a5,-40(s0)
80011028:	40f48733          	sub	a4,s1,a5
8001102c:	00070793          	mv	a5,a4
80011030:	00379793          	slli	a5,a5,0x3
80011034:	40e78733          	sub	a4,a5,a4
80011038:	fdc42783          	lw	a5,-36(s0)
8001103c:	40f704b3          	sub	s1,a4,a5
80011040:	fdc40793          	addi	a5,s0,-36
80011044:	00078513          	mv	a0,a5
80011048:	688000ef          	jal	ra,800116d0 <Proc_2>
8001104c:	00198993          	addi	s3,s3,1
80011050:	e73952e3          	bge	s2,s3,80010eb4 <main+0x1bc>
80011054:	00000513          	li	a0,0
80011058:	b35ff0ef          	jal	ra,80010b8c <time>
8001105c:	00050713          	mv	a4,a0
80011060:	800037b7          	lui	a5,0x80003
80011064:	d6e7a223          	sw	a4,-668(a5) # 80002d64 <__modsi3+0xffff1478>
80011068:	800037b7          	lui	a5,0x80003
8001106c:	d647a703          	lw	a4,-668(a5) # 80002d64 <__modsi3+0xffff1478>
80011070:	800007b7          	lui	a5,0x80000
80011074:	6507a783          	lw	a5,1616(a5) # 80000650 <__modsi3+0xfffeed64>
80011078:	40f70733          	sub	a4,a4,a5
8001107c:	800007b7          	lui	a5,0x80000
80011080:	64e7a623          	sw	a4,1612(a5) # 8000064c <__modsi3+0xfffeed60>
80011084:	800007b7          	lui	a5,0x80000
80011088:	64c7a703          	lw	a4,1612(a5) # 8000064c <__modsi3+0xfffeed60>
8001108c:	00100793          	li	a5,1
80011090:	02e7ca63          	blt	a5,a4,800110c4 <main+0x3cc>
80011094:	800007b7          	lui	a5,0x80000
80011098:	1e478513          	addi	a0,a5,484 # 800001e4 <__modsi3+0xfffee8f8>
8001109c:	bddff0ef          	jal	ra,80010c78 <debug_printf>
800110a0:	00090793          	mv	a5,s2
800110a4:	00279793          	slli	a5,a5,0x2
800110a8:	012787b3          	add	a5,a5,s2
800110ac:	00179793          	slli	a5,a5,0x1
800110b0:	00078913          	mv	s2,a5
800110b4:	800007b7          	lui	a5,0x80000
800110b8:	0cc78513          	addi	a0,a5,204 # 800000cc <__modsi3+0xfffee7e0>
800110bc:	bbdff0ef          	jal	ra,80010c78 <debug_printf>
800110c0:	0100006f          	j	800110d0 <main+0x3d8>
800110c4:	800037b7          	lui	a5,0x80003
800110c8:	00100713          	li	a4,1
800110cc:	d6e7ac23          	sw	a4,-648(a5) # 80002d78 <__modsi3+0xffff148c>
800110d0:	800037b7          	lui	a5,0x80003
800110d4:	d787a783          	lw	a5,-648(a5) # 80002d78 <__modsi3+0xffff148c>
800110d8:	da0788e3          	beqz	a5,80010e88 <main+0x190>
800110dc:	800007b7          	lui	a5,0x80000
800110e0:	21c78513          	addi	a0,a5,540 # 8000021c <__modsi3+0xfffee930>
800110e4:	b95ff0ef          	jal	ra,80010c78 <debug_printf>
800110e8:	800007b7          	lui	a5,0x80000
800110ec:	0cc78513          	addi	a0,a5,204 # 800000cc <__modsi3+0xfffee7e0>
800110f0:	b89ff0ef          	jal	ra,80010c78 <debug_printf>
800110f4:	800037b7          	lui	a5,0x80003
800110f8:	d6c7a783          	lw	a5,-660(a5) # 80002d6c <__modsi3+0xffff1480>
800110fc:	00078593          	mv	a1,a5
80011100:	800007b7          	lui	a5,0x80000
80011104:	25478513          	addi	a0,a5,596 # 80000254 <__modsi3+0xfffee968>
80011108:	b71ff0ef          	jal	ra,80010c78 <debug_printf>
8001110c:	00500593          	li	a1,5
80011110:	800007b7          	lui	a5,0x80000
80011114:	27078513          	addi	a0,a5,624 # 80000270 <__modsi3+0xfffee984>
80011118:	b61ff0ef          	jal	ra,80010c78 <debug_printf>
8001111c:	800037b7          	lui	a5,0x80003
80011120:	e447a783          	lw	a5,-444(a5) # 80002e44 <__modsi3+0xffff1558>
80011124:	00078593          	mv	a1,a5
80011128:	800007b7          	lui	a5,0x80000
8001112c:	28c78513          	addi	a0,a5,652 # 8000028c <__modsi3+0xfffee9a0>
80011130:	b49ff0ef          	jal	ra,80010c78 <debug_printf>
80011134:	00100593          	li	a1,1
80011138:	800007b7          	lui	a5,0x80000
8001113c:	27078513          	addi	a0,a5,624 # 80000270 <__modsi3+0xfffee984>
80011140:	b39ff0ef          	jal	ra,80010c78 <debug_printf>
80011144:	800037b7          	lui	a5,0x80003
80011148:	d707c783          	lbu	a5,-656(a5) # 80002d70 <__modsi3+0xffff1484>
8001114c:	00078593          	mv	a1,a5
80011150:	800007b7          	lui	a5,0x80000
80011154:	2a878513          	addi	a0,a5,680 # 800002a8 <__modsi3+0xfffee9bc>
80011158:	b21ff0ef          	jal	ra,80010c78 <debug_printf>
8001115c:	04100593          	li	a1,65
80011160:	800007b7          	lui	a5,0x80000
80011164:	2c478513          	addi	a0,a5,708 # 800002c4 <__modsi3+0xfffee9d8>
80011168:	b11ff0ef          	jal	ra,80010c78 <debug_printf>
8001116c:	800037b7          	lui	a5,0x80003
80011170:	d717c783          	lbu	a5,-655(a5) # 80002d71 <__modsi3+0xffff1485>
80011174:	00078593          	mv	a1,a5
80011178:	800007b7          	lui	a5,0x80000
8001117c:	2e078513          	addi	a0,a5,736 # 800002e0 <__modsi3+0xfffee9f4>
80011180:	af9ff0ef          	jal	ra,80010c78 <debug_printf>
80011184:	04200593          	li	a1,66
80011188:	800007b7          	lui	a5,0x80000
8001118c:	2c478513          	addi	a0,a5,708 # 800002c4 <__modsi3+0xfffee9d8>
80011190:	ae9ff0ef          	jal	ra,80010c78 <debug_printf>
80011194:	800037b7          	lui	a5,0x80003
80011198:	d7c78793          	addi	a5,a5,-644 # 80002d7c <__modsi3+0xffff1490>
8001119c:	0207a783          	lw	a5,32(a5)
800111a0:	00078593          	mv	a1,a5
800111a4:	800007b7          	lui	a5,0x80000
800111a8:	2fc78513          	addi	a0,a5,764 # 800002fc <__modsi3+0xfffeea10>
800111ac:	acdff0ef          	jal	ra,80010c78 <debug_printf>
800111b0:	00700593          	li	a1,7
800111b4:	800007b7          	lui	a5,0x80000
800111b8:	27078513          	addi	a0,a5,624 # 80000270 <__modsi3+0xfffee984>
800111bc:	abdff0ef          	jal	ra,80010c78 <debug_printf>
800111c0:	800007b7          	lui	a5,0x80000
800111c4:	65478793          	addi	a5,a5,1620 # 80000654 <__modsi3+0xfffeed68>
800111c8:	65c7a783          	lw	a5,1628(a5)
800111cc:	00078593          	mv	a1,a5
800111d0:	800007b7          	lui	a5,0x80000
800111d4:	31878513          	addi	a0,a5,792 # 80000318 <__modsi3+0xfffeea2c>
800111d8:	aa1ff0ef          	jal	ra,80010c78 <debug_printf>
800111dc:	800007b7          	lui	a5,0x80000
800111e0:	33478513          	addi	a0,a5,820 # 80000334 <__modsi3+0xfffeea48>
800111e4:	a95ff0ef          	jal	ra,80010c78 <debug_printf>
800111e8:	800007b7          	lui	a5,0x80000
800111ec:	36078513          	addi	a0,a5,864 # 80000360 <__modsi3+0xfffeea74>
800111f0:	a89ff0ef          	jal	ra,80010c78 <debug_printf>
800111f4:	800037b7          	lui	a5,0x80003
800111f8:	d747a783          	lw	a5,-652(a5) # 80002d74 <__modsi3+0xffff1488>
800111fc:	0007a783          	lw	a5,0(a5)
80011200:	00078593          	mv	a1,a5
80011204:	800007b7          	lui	a5,0x80000
80011208:	37078513          	addi	a0,a5,880 # 80000370 <__modsi3+0xfffeea84>
8001120c:	a6dff0ef          	jal	ra,80010c78 <debug_printf>
80011210:	800007b7          	lui	a5,0x80000
80011214:	38c78513          	addi	a0,a5,908 # 8000038c <__modsi3+0xfffeeaa0>
80011218:	a61ff0ef          	jal	ra,80010c78 <debug_printf>
8001121c:	800037b7          	lui	a5,0x80003
80011220:	d747a783          	lw	a5,-652(a5) # 80002d74 <__modsi3+0xffff1488>
80011224:	0047a783          	lw	a5,4(a5)
80011228:	00078593          	mv	a1,a5
8001122c:	800007b7          	lui	a5,0x80000
80011230:	3c078513          	addi	a0,a5,960 # 800003c0 <__modsi3+0xfffeead4>
80011234:	a45ff0ef          	jal	ra,80010c78 <debug_printf>
80011238:	00000593          	li	a1,0
8001123c:	800007b7          	lui	a5,0x80000
80011240:	27078513          	addi	a0,a5,624 # 80000270 <__modsi3+0xfffee984>
80011244:	a35ff0ef          	jal	ra,80010c78 <debug_printf>
80011248:	800037b7          	lui	a5,0x80003
8001124c:	d747a783          	lw	a5,-652(a5) # 80002d74 <__modsi3+0xffff1488>
80011250:	0087a783          	lw	a5,8(a5)
80011254:	00078593          	mv	a1,a5
80011258:	800007b7          	lui	a5,0x80000
8001125c:	3dc78513          	addi	a0,a5,988 # 800003dc <__modsi3+0xfffeeaf0>
80011260:	a19ff0ef          	jal	ra,80010c78 <debug_printf>
80011264:	00200593          	li	a1,2
80011268:	800007b7          	lui	a5,0x80000
8001126c:	27078513          	addi	a0,a5,624 # 80000270 <__modsi3+0xfffee984>
80011270:	a09ff0ef          	jal	ra,80010c78 <debug_printf>
80011274:	800037b7          	lui	a5,0x80003
80011278:	d747a783          	lw	a5,-652(a5) # 80002d74 <__modsi3+0xffff1488>
8001127c:	00c7a783          	lw	a5,12(a5)
80011280:	00078593          	mv	a1,a5
80011284:	800007b7          	lui	a5,0x80000
80011288:	3f878513          	addi	a0,a5,1016 # 800003f8 <__modsi3+0xfffeeb0c>
8001128c:	9edff0ef          	jal	ra,80010c78 <debug_printf>
80011290:	01100593          	li	a1,17
80011294:	800007b7          	lui	a5,0x80000
80011298:	27078513          	addi	a0,a5,624 # 80000270 <__modsi3+0xfffee984>
8001129c:	9ddff0ef          	jal	ra,80010c78 <debug_printf>
800112a0:	800037b7          	lui	a5,0x80003
800112a4:	d747a783          	lw	a5,-652(a5) # 80002d74 <__modsi3+0xffff1488>
800112a8:	01078793          	addi	a5,a5,16
800112ac:	00078593          	mv	a1,a5
800112b0:	800007b7          	lui	a5,0x80000
800112b4:	41478513          	addi	a0,a5,1044 # 80000414 <__modsi3+0xfffeeb28>
800112b8:	9c1ff0ef          	jal	ra,80010c78 <debug_printf>
800112bc:	800007b7          	lui	a5,0x80000
800112c0:	43078513          	addi	a0,a5,1072 # 80000430 <__modsi3+0xfffeeb44>
800112c4:	9b5ff0ef          	jal	ra,80010c78 <debug_printf>
800112c8:	800007b7          	lui	a5,0x80000
800112cc:	46878513          	addi	a0,a5,1128 # 80000468 <__modsi3+0xfffeeb7c>
800112d0:	9a9ff0ef          	jal	ra,80010c78 <debug_printf>
800112d4:	800037b7          	lui	a5,0x80003
800112d8:	d687a783          	lw	a5,-664(a5) # 80002d68 <__modsi3+0xffff147c>
800112dc:	0007a783          	lw	a5,0(a5)
800112e0:	00078593          	mv	a1,a5
800112e4:	800007b7          	lui	a5,0x80000
800112e8:	37078513          	addi	a0,a5,880 # 80000370 <__modsi3+0xfffeea84>
800112ec:	98dff0ef          	jal	ra,80010c78 <debug_printf>
800112f0:	800007b7          	lui	a5,0x80000
800112f4:	47c78513          	addi	a0,a5,1148 # 8000047c <__modsi3+0xfffeeb90>
800112f8:	981ff0ef          	jal	ra,80010c78 <debug_printf>
800112fc:	800037b7          	lui	a5,0x80003
80011300:	d687a783          	lw	a5,-664(a5) # 80002d68 <__modsi3+0xffff147c>
80011304:	0047a783          	lw	a5,4(a5)
80011308:	00078593          	mv	a1,a5
8001130c:	800007b7          	lui	a5,0x80000
80011310:	3c078513          	addi	a0,a5,960 # 800003c0 <__modsi3+0xfffeead4>
80011314:	965ff0ef          	jal	ra,80010c78 <debug_printf>
80011318:	00000593          	li	a1,0
8001131c:	800007b7          	lui	a5,0x80000
80011320:	27078513          	addi	a0,a5,624 # 80000270 <__modsi3+0xfffee984>
80011324:	955ff0ef          	jal	ra,80010c78 <debug_printf>
80011328:	800037b7          	lui	a5,0x80003
8001132c:	d687a783          	lw	a5,-664(a5) # 80002d68 <__modsi3+0xffff147c>
80011330:	0087a783          	lw	a5,8(a5)
80011334:	00078593          	mv	a1,a5
80011338:	800007b7          	lui	a5,0x80000
8001133c:	3dc78513          	addi	a0,a5,988 # 800003dc <__modsi3+0xfffeeaf0>
80011340:	939ff0ef          	jal	ra,80010c78 <debug_printf>
80011344:	00100593          	li	a1,1
80011348:	800007b7          	lui	a5,0x80000
8001134c:	27078513          	addi	a0,a5,624 # 80000270 <__modsi3+0xfffee984>
80011350:	929ff0ef          	jal	ra,80010c78 <debug_printf>
80011354:	800037b7          	lui	a5,0x80003
80011358:	d687a783          	lw	a5,-664(a5) # 80002d68 <__modsi3+0xffff147c>
8001135c:	00c7a783          	lw	a5,12(a5)
80011360:	00078593          	mv	a1,a5
80011364:	800007b7          	lui	a5,0x80000
80011368:	3f878513          	addi	a0,a5,1016 # 800003f8 <__modsi3+0xfffeeb0c>
8001136c:	90dff0ef          	jal	ra,80010c78 <debug_printf>
80011370:	01200593          	li	a1,18
80011374:	800007b7          	lui	a5,0x80000
80011378:	27078513          	addi	a0,a5,624 # 80000270 <__modsi3+0xfffee984>
8001137c:	8fdff0ef          	jal	ra,80010c78 <debug_printf>
80011380:	800037b7          	lui	a5,0x80003
80011384:	d687a783          	lw	a5,-664(a5) # 80002d68 <__modsi3+0xffff147c>
80011388:	01078793          	addi	a5,a5,16
8001138c:	00078593          	mv	a1,a5
80011390:	800007b7          	lui	a5,0x80000
80011394:	41478513          	addi	a0,a5,1044 # 80000414 <__modsi3+0xfffeeb28>
80011398:	8e1ff0ef          	jal	ra,80010c78 <debug_printf>
8001139c:	800007b7          	lui	a5,0x80000
800113a0:	43078513          	addi	a0,a5,1072 # 80000430 <__modsi3+0xfffeeb44>
800113a4:	8d5ff0ef          	jal	ra,80010c78 <debug_printf>
800113a8:	fdc42783          	lw	a5,-36(s0)
800113ac:	00078593          	mv	a1,a5
800113b0:	800007b7          	lui	a5,0x80000
800113b4:	4c078513          	addi	a0,a5,1216 # 800004c0 <__modsi3+0xfffeebd4>
800113b8:	8c1ff0ef          	jal	ra,80010c78 <debug_printf>
800113bc:	00500593          	li	a1,5
800113c0:	800007b7          	lui	a5,0x80000
800113c4:	27078513          	addi	a0,a5,624 # 80000270 <__modsi3+0xfffee984>
800113c8:	8b1ff0ef          	jal	ra,80010c78 <debug_printf>
800113cc:	00048593          	mv	a1,s1
800113d0:	800007b7          	lui	a5,0x80000
800113d4:	4dc78513          	addi	a0,a5,1244 # 800004dc <__modsi3+0xfffeebf0>
800113d8:	8a1ff0ef          	jal	ra,80010c78 <debug_printf>
800113dc:	00d00593          	li	a1,13
800113e0:	800007b7          	lui	a5,0x80000
800113e4:	27078513          	addi	a0,a5,624 # 80000270 <__modsi3+0xfffee984>
800113e8:	891ff0ef          	jal	ra,80010c78 <debug_printf>
800113ec:	fd842783          	lw	a5,-40(s0)
800113f0:	00078593          	mv	a1,a5
800113f4:	800007b7          	lui	a5,0x80000
800113f8:	4f878513          	addi	a0,a5,1272 # 800004f8 <__modsi3+0xfffeec0c>
800113fc:	87dff0ef          	jal	ra,80010c78 <debug_printf>
80011400:	00700593          	li	a1,7
80011404:	800007b7          	lui	a5,0x80000
80011408:	27078513          	addi	a0,a5,624 # 80000270 <__modsi3+0xfffee984>
8001140c:	86dff0ef          	jal	ra,80010c78 <debug_printf>
80011410:	fd442783          	lw	a5,-44(s0)
80011414:	00078593          	mv	a1,a5
80011418:	800007b7          	lui	a5,0x80000
8001141c:	51478513          	addi	a0,a5,1300 # 80000514 <__modsi3+0xfffeec28>
80011420:	859ff0ef          	jal	ra,80010c78 <debug_printf>
80011424:	00100593          	li	a1,1
80011428:	800007b7          	lui	a5,0x80000
8001142c:	27078513          	addi	a0,a5,624 # 80000270 <__modsi3+0xfffee984>
80011430:	849ff0ef          	jal	ra,80010c78 <debug_printf>
80011434:	fb440793          	addi	a5,s0,-76
80011438:	00078593          	mv	a1,a5
8001143c:	800007b7          	lui	a5,0x80000
80011440:	53078513          	addi	a0,a5,1328 # 80000530 <__modsi3+0xfffeec44>
80011444:	835ff0ef          	jal	ra,80010c78 <debug_printf>
80011448:	800007b7          	lui	a5,0x80000
8001144c:	54c78513          	addi	a0,a5,1356 # 8000054c <__modsi3+0xfffeec60>
80011450:	829ff0ef          	jal	ra,80010c78 <debug_printf>
80011454:	f9440793          	addi	a5,s0,-108
80011458:	00078593          	mv	a1,a5
8001145c:	800007b7          	lui	a5,0x80000
80011460:	58478513          	addi	a0,a5,1412 # 80000584 <__modsi3+0xfffeec98>
80011464:	815ff0ef          	jal	ra,80010c78 <debug_printf>
80011468:	800007b7          	lui	a5,0x80000
8001146c:	5a078513          	addi	a0,a5,1440 # 800005a0 <__modsi3+0xfffeecb4>
80011470:	809ff0ef          	jal	ra,80010c78 <debug_printf>
80011474:	800007b7          	lui	a5,0x80000
80011478:	0cc78513          	addi	a0,a5,204 # 800000cc <__modsi3+0xfffee7e0>
8001147c:	ffcff0ef          	jal	ra,80010c78 <debug_printf>
80011480:	800007b7          	lui	a5,0x80000
80011484:	64c7a783          	lw	a5,1612(a5) # 8000064c <__modsi3+0xfffeed60>
80011488:	00090593          	mv	a1,s2
8001148c:	00078513          	mv	a0,a5
80011490:	3d8000ef          	jal	ra,80011868 <__divsi3>
80011494:	00050793          	mv	a5,a0
80011498:	00078693          	mv	a3,a5
8001149c:	00068713          	mv	a4,a3
800114a0:	00571793          	slli	a5,a4,0x5
800114a4:	00078713          	mv	a4,a5
800114a8:	40d70733          	sub	a4,a4,a3
800114ac:	00671793          	slli	a5,a4,0x6
800114b0:	40e787b3          	sub	a5,a5,a4
800114b4:	00379793          	slli	a5,a5,0x3
800114b8:	00d787b3          	add	a5,a5,a3
800114bc:	00679793          	slli	a5,a5,0x6
800114c0:	00078713          	mv	a4,a5
800114c4:	800007b7          	lui	a5,0x80000
800114c8:	64e7a223          	sw	a4,1604(a5) # 80000644 <__modsi3+0xfffeed58>
800114cc:	800007b7          	lui	a5,0x80000
800114d0:	64c7a783          	lw	a5,1612(a5) # 8000064c <__modsi3+0xfffeed60>
800114d4:	00078593          	mv	a1,a5
800114d8:	00090513          	mv	a0,s2
800114dc:	38c000ef          	jal	ra,80011868 <__divsi3>
800114e0:	00050793          	mv	a5,a0
800114e4:	00078713          	mv	a4,a5
800114e8:	800007b7          	lui	a5,0x80000
800114ec:	64e7a423          	sw	a4,1608(a5) # 80000648 <__modsi3+0xfffeed5c>
800114f0:	800007b7          	lui	a5,0x80000
800114f4:	6447a783          	lw	a5,1604(a5) # 80000644 <__modsi3+0xfffeed58>
800114f8:	00078593          	mv	a1,a5
800114fc:	800007b7          	lui	a5,0x80000
80011500:	5d878513          	addi	a0,a5,1496 # 800005d8 <__modsi3+0xfffeecec>
80011504:	f74ff0ef          	jal	ra,80010c78 <debug_printf>
80011508:	800007b7          	lui	a5,0x80000
8001150c:	6487a783          	lw	a5,1608(a5) # 80000648 <__modsi3+0xfffeed5c>
80011510:	00078593          	mv	a1,a5
80011514:	800007b7          	lui	a5,0x80000
80011518:	60c78513          	addi	a0,a5,1548 # 8000060c <__modsi3+0xfffeed20>
8001151c:	f5cff0ef          	jal	ra,80010c78 <debug_printf>
80011520:	00000793          	li	a5,0
80011524:	00078513          	mv	a0,a5
80011528:	e8040113          	addi	sp,s0,-384
8001152c:	17c12083          	lw	ra,380(sp)
80011530:	17812403          	lw	s0,376(sp)
80011534:	17412483          	lw	s1,372(sp)
80011538:	17012903          	lw	s2,368(sp)
8001153c:	16c12983          	lw	s3,364(sp)
80011540:	16812a03          	lw	s4,360(sp)
80011544:	18010113          	addi	sp,sp,384
80011548:	00008067          	ret

8001154c <Proc_1>:
8001154c:	ff010113          	addi	sp,sp,-16
80011550:	00112623          	sw	ra,12(sp)
80011554:	00812423          	sw	s0,8(sp)
80011558:	00912223          	sw	s1,4(sp)
8001155c:	01212023          	sw	s2,0(sp)
80011560:	01010413          	addi	s0,sp,16
80011564:	00050493          	mv	s1,a0
80011568:	0004a903          	lw	s2,0(s1)
8001156c:	800037b7          	lui	a5,0x80003
80011570:	d747a703          	lw	a4,-652(a5) # 80002d74 <__modsi3+0xffff1488>
80011574:	0004a783          	lw	a5,0(s1)
80011578:	00072f83          	lw	t6,0(a4)
8001157c:	00472f03          	lw	t5,4(a4)
80011580:	00872e83          	lw	t4,8(a4)
80011584:	00c72e03          	lw	t3,12(a4)
80011588:	01072303          	lw	t1,16(a4)
8001158c:	01472883          	lw	a7,20(a4)
80011590:	01872803          	lw	a6,24(a4)
80011594:	01c72503          	lw	a0,28(a4)
80011598:	02072583          	lw	a1,32(a4)
8001159c:	02472603          	lw	a2,36(a4)
800115a0:	02872683          	lw	a3,40(a4)
800115a4:	02c72703          	lw	a4,44(a4)
800115a8:	01f7a023          	sw	t6,0(a5)
800115ac:	01e7a223          	sw	t5,4(a5)
800115b0:	01d7a423          	sw	t4,8(a5)
800115b4:	01c7a623          	sw	t3,12(a5)
800115b8:	0067a823          	sw	t1,16(a5)
800115bc:	0117aa23          	sw	a7,20(a5)
800115c0:	0107ac23          	sw	a6,24(a5)
800115c4:	00a7ae23          	sw	a0,28(a5)
800115c8:	02b7a023          	sw	a1,32(a5)
800115cc:	02c7a223          	sw	a2,36(a5)
800115d0:	02d7a423          	sw	a3,40(a5)
800115d4:	02e7a623          	sw	a4,44(a5)
800115d8:	00500793          	li	a5,5
800115dc:	00f4a623          	sw	a5,12(s1)
800115e0:	00c4a783          	lw	a5,12(s1)
800115e4:	00f92623          	sw	a5,12(s2)
800115e8:	0004a783          	lw	a5,0(s1)
800115ec:	00f92023          	sw	a5,0(s2)
800115f0:	00090793          	mv	a5,s2
800115f4:	00078513          	mv	a0,a5
800115f8:	14c000ef          	jal	ra,80011744 <Proc_3>
800115fc:	00492783          	lw	a5,4(s2)
80011600:	04079663          	bnez	a5,8001164c <Proc_1+0x100>
80011604:	00600793          	li	a5,6
80011608:	00f92623          	sw	a5,12(s2)
8001160c:	0084a783          	lw	a5,8(s1)
80011610:	00890713          	addi	a4,s2,8
80011614:	00070593          	mv	a1,a4
80011618:	00078513          	mv	a0,a5
8001161c:	890ff0ef          	jal	ra,800106ac <Proc_6>
80011620:	800037b7          	lui	a5,0x80003
80011624:	d747a783          	lw	a5,-652(a5) # 80002d74 <__modsi3+0xffff1488>
80011628:	0007a783          	lw	a5,0(a5)
8001162c:	00f92023          	sw	a5,0(s2)
80011630:	00c92783          	lw	a5,12(s2)
80011634:	00c90713          	addi	a4,s2,12
80011638:	00070613          	mv	a2,a4
8001163c:	00a00593          	li	a1,10
80011640:	00078513          	mv	a0,a5
80011644:	944ff0ef          	jal	ra,80010788 <Proc_7>
80011648:	0680006f          	j	800116b0 <Proc_1+0x164>
8001164c:	0004a783          	lw	a5,0(s1)
80011650:	0007af03          	lw	t5,0(a5)
80011654:	0047ae83          	lw	t4,4(a5)
80011658:	0087ae03          	lw	t3,8(a5)
8001165c:	00c7a303          	lw	t1,12(a5)
80011660:	0107a883          	lw	a7,16(a5)
80011664:	0147a803          	lw	a6,20(a5)
80011668:	0187a503          	lw	a0,24(a5)
8001166c:	01c7a583          	lw	a1,28(a5)
80011670:	0207a603          	lw	a2,32(a5)
80011674:	0247a683          	lw	a3,36(a5)
80011678:	0287a703          	lw	a4,40(a5)
8001167c:	02c7a783          	lw	a5,44(a5)
80011680:	01e4a023          	sw	t5,0(s1)
80011684:	01d4a223          	sw	t4,4(s1)
80011688:	01c4a423          	sw	t3,8(s1)
8001168c:	0064a623          	sw	t1,12(s1)
80011690:	0114a823          	sw	a7,16(s1)
80011694:	0104aa23          	sw	a6,20(s1)
80011698:	00a4ac23          	sw	a0,24(s1)
8001169c:	00b4ae23          	sw	a1,28(s1)
800116a0:	02c4a023          	sw	a2,32(s1)
800116a4:	02d4a223          	sw	a3,36(s1)
800116a8:	02e4a423          	sw	a4,40(s1)
800116ac:	02f4a623          	sw	a5,44(s1)
800116b0:	00000013          	nop
800116b4:	00078513          	mv	a0,a5
800116b8:	00c12083          	lw	ra,12(sp)
800116bc:	00812403          	lw	s0,8(sp)
800116c0:	00412483          	lw	s1,4(sp)
800116c4:	00012903          	lw	s2,0(sp)
800116c8:	01010113          	addi	sp,sp,16
800116cc:	00008067          	ret

800116d0 <Proc_2>:
800116d0:	fd010113          	addi	sp,sp,-48
800116d4:	02812623          	sw	s0,44(sp)
800116d8:	03010413          	addi	s0,sp,48
800116dc:	fca42e23          	sw	a0,-36(s0)
800116e0:	fdc42783          	lw	a5,-36(s0)
800116e4:	0007a783          	lw	a5,0(a5)
800116e8:	00a78793          	addi	a5,a5,10
800116ec:	fef42623          	sw	a5,-20(s0)
800116f0:	800037b7          	lui	a5,0x80003
800116f4:	d707c703          	lbu	a4,-656(a5) # 80002d70 <__modsi3+0xffff1484>
800116f8:	04100793          	li	a5,65
800116fc:	02f71663          	bne	a4,a5,80011728 <Proc_2+0x58>
80011700:	fec42783          	lw	a5,-20(s0)
80011704:	fff78793          	addi	a5,a5,-1
80011708:	fef42623          	sw	a5,-20(s0)
8001170c:	800037b7          	lui	a5,0x80003
80011710:	d6c7a783          	lw	a5,-660(a5) # 80002d6c <__modsi3+0xffff1480>
80011714:	fec42703          	lw	a4,-20(s0)
80011718:	40f70733          	sub	a4,a4,a5
8001171c:	fdc42783          	lw	a5,-36(s0)
80011720:	00e7a023          	sw	a4,0(a5)
80011724:	fe042423          	sw	zero,-24(s0)
80011728:	fe842783          	lw	a5,-24(s0)
8001172c:	fc0792e3          	bnez	a5,800116f0 <Proc_2+0x20>
80011730:	00000013          	nop
80011734:	00078513          	mv	a0,a5
80011738:	02c12403          	lw	s0,44(sp)
8001173c:	03010113          	addi	sp,sp,48
80011740:	00008067          	ret

80011744 <Proc_3>:
80011744:	fe010113          	addi	sp,sp,-32
80011748:	00112e23          	sw	ra,28(sp)
8001174c:	00812c23          	sw	s0,24(sp)
80011750:	02010413          	addi	s0,sp,32
80011754:	fea42623          	sw	a0,-20(s0)
80011758:	800037b7          	lui	a5,0x80003
8001175c:	d747a783          	lw	a5,-652(a5) # 80002d74 <__modsi3+0xffff1488>
80011760:	00078c63          	beqz	a5,80011778 <Proc_3+0x34>
80011764:	800037b7          	lui	a5,0x80003
80011768:	d747a783          	lw	a5,-652(a5) # 80002d74 <__modsi3+0xffff1488>
8001176c:	0007a703          	lw	a4,0(a5)
80011770:	fec42783          	lw	a5,-20(s0)
80011774:	00e7a023          	sw	a4,0(a5)
80011778:	800037b7          	lui	a5,0x80003
8001177c:	d6c7a703          	lw	a4,-660(a5) # 80002d6c <__modsi3+0xffff1480>
80011780:	800037b7          	lui	a5,0x80003
80011784:	d747a783          	lw	a5,-652(a5) # 80002d74 <__modsi3+0xffff1488>
80011788:	00c78793          	addi	a5,a5,12
8001178c:	00078613          	mv	a2,a5
80011790:	00070593          	mv	a1,a4
80011794:	00a00513          	li	a0,10
80011798:	ff1fe0ef          	jal	ra,80010788 <Proc_7>
8001179c:	00000013          	nop
800117a0:	00078513          	mv	a0,a5
800117a4:	01c12083          	lw	ra,28(sp)
800117a8:	01812403          	lw	s0,24(sp)
800117ac:	02010113          	addi	sp,sp,32
800117b0:	00008067          	ret

800117b4 <Proc_4>:
800117b4:	fe010113          	addi	sp,sp,-32
800117b8:	00812e23          	sw	s0,28(sp)
800117bc:	02010413          	addi	s0,sp,32
800117c0:	800037b7          	lui	a5,0x80003
800117c4:	d707c783          	lbu	a5,-656(a5) # 80002d70 <__modsi3+0xffff1484>
800117c8:	fbf78793          	addi	a5,a5,-65
800117cc:	0017b793          	seqz	a5,a5
800117d0:	0ff7f793          	andi	a5,a5,255
800117d4:	fef42623          	sw	a5,-20(s0)
800117d8:	800037b7          	lui	a5,0x80003
800117dc:	e447a703          	lw	a4,-444(a5) # 80002e44 <__modsi3+0xffff1558>
800117e0:	fec42783          	lw	a5,-20(s0)
800117e4:	00f76733          	or	a4,a4,a5
800117e8:	800037b7          	lui	a5,0x80003
800117ec:	e4e7a223          	sw	a4,-444(a5) # 80002e44 <__modsi3+0xffff1558>
800117f0:	800037b7          	lui	a5,0x80003
800117f4:	04200713          	li	a4,66
800117f8:	d6e788a3          	sb	a4,-655(a5) # 80002d71 <__modsi3+0xffff1485>
800117fc:	00000013          	nop
80011800:	00078513          	mv	a0,a5
80011804:	01c12403          	lw	s0,28(sp)
80011808:	02010113          	addi	sp,sp,32
8001180c:	00008067          	ret

80011810 <Proc_5>:
80011810:	ff010113          	addi	sp,sp,-16
80011814:	00812623          	sw	s0,12(sp)
80011818:	01010413          	addi	s0,sp,16
8001181c:	800037b7          	lui	a5,0x80003
80011820:	04100713          	li	a4,65
80011824:	d6e78823          	sb	a4,-656(a5) # 80002d70 <__modsi3+0xffff1484>
80011828:	800037b7          	lui	a5,0x80003
8001182c:	e407a223          	sw	zero,-444(a5) # 80002e44 <__modsi3+0xffff1558>
80011830:	00000013          	nop
80011834:	00078513          	mv	a0,a5
80011838:	00c12403          	lw	s0,12(sp)
8001183c:	01010113          	addi	sp,sp,16
80011840:	00008067          	ret

80011844 <__mulsi3>:
80011844:	00050613          	mv	a2,a0
80011848:	00000513          	li	a0,0
8001184c:	0015f693          	andi	a3,a1,1
80011850:	00068463          	beqz	a3,80011858 <__mulsi3+0x14>
80011854:	00c50533          	add	a0,a0,a2
80011858:	0015d593          	srli	a1,a1,0x1
8001185c:	00161613          	slli	a2,a2,0x1
80011860:	fe0596e3          	bnez	a1,8001184c <__mulsi3+0x8>
80011864:	00008067          	ret

80011868 <__divsi3>:
80011868:	06054063          	bltz	a0,800118c8 <__umodsi3+0x10>
8001186c:	0605c663          	bltz	a1,800118d8 <__umodsi3+0x20>

80011870 <__udivsi3>:
80011870:	00058613          	mv	a2,a1
80011874:	00050593          	mv	a1,a0
80011878:	fff00513          	li	a0,-1
8001187c:	02060c63          	beqz	a2,800118b4 <__udivsi3+0x44>
80011880:	00100693          	li	a3,1
80011884:	00b67a63          	bgeu	a2,a1,80011898 <__udivsi3+0x28>
80011888:	00c05863          	blez	a2,80011898 <__udivsi3+0x28>
8001188c:	00161613          	slli	a2,a2,0x1
80011890:	00169693          	slli	a3,a3,0x1
80011894:	feb66ae3          	bltu	a2,a1,80011888 <__udivsi3+0x18>
80011898:	00000513          	li	a0,0
8001189c:	00c5e663          	bltu	a1,a2,800118a8 <__udivsi3+0x38>
800118a0:	40c585b3          	sub	a1,a1,a2
800118a4:	00d56533          	or	a0,a0,a3
800118a8:	0016d693          	srli	a3,a3,0x1
800118ac:	00165613          	srli	a2,a2,0x1
800118b0:	fe0696e3          	bnez	a3,8001189c <__udivsi3+0x2c>
800118b4:	00008067          	ret

800118b8 <__umodsi3>:
800118b8:	00008293          	mv	t0,ra
800118bc:	fb5ff0ef          	jal	ra,80011870 <__udivsi3>
800118c0:	00058513          	mv	a0,a1
800118c4:	00028067          	jr	t0
800118c8:	40a00533          	neg	a0,a0
800118cc:	0005d863          	bgez	a1,800118dc <__umodsi3+0x24>
800118d0:	40b005b3          	neg	a1,a1
800118d4:	f9dff06f          	j	80011870 <__udivsi3>
800118d8:	40b005b3          	neg	a1,a1
800118dc:	00008293          	mv	t0,ra
800118e0:	f91ff0ef          	jal	ra,80011870 <__udivsi3>
800118e4:	40a00533          	neg	a0,a0
800118e8:	00028067          	jr	t0

800118ec <__modsi3>:
800118ec:	00008293          	mv	t0,ra
800118f0:	0005ca63          	bltz	a1,80011904 <__modsi3+0x18>
800118f4:	00054c63          	bltz	a0,8001190c <__modsi3+0x20>
800118f8:	f79ff0ef          	jal	ra,80011870 <__udivsi3>
800118fc:	00058513          	mv	a0,a1
80011900:	00028067          	jr	t0
80011904:	40b005b3          	neg	a1,a1
80011908:	fe0558e3          	bgez	a0,800118f8 <__modsi3+0xc>
8001190c:	40a00533          	neg	a0,a0
80011910:	f61ff0ef          	jal	ra,80011870 <__udivsi3>
80011914:	40b00533          	neg	a0,a1
80011918:	00028067          	jr	t0
8001191c:	0000                	unimp
	...
